Archive member included to satisfy reference by file (symbol)

/home/gmf/uboot/toolchain/x-tools/arm-s3c2440-linux-gnueabi/lib/gcc/arm-s3c2440-linux-gnueabi/5.2.0/libgcc.a(_udivsi3.o)
                              arch/arm/cpu/arm920t/built-in.o (__aeabi_uidiv)
/home/gmf/uboot/toolchain/x-tools/arm-s3c2440-linux-gnueabi/lib/gcc/arm-s3c2440-linux-gnueabi/5.2.0/libgcc.a(_divsi3.o)
                              cmd/built-in.o (__aeabi_idiv)
/home/gmf/uboot/toolchain/x-tools/arm-s3c2440-linux-gnueabi/lib/gcc/arm-s3c2440-linux-gnueabi/5.2.0/libgcc.a(_lshrdi3.o)
                              drivers/mtd/built-in.o (__aeabi_llsr)
/home/gmf/uboot/toolchain/x-tools/arm-s3c2440-linux-gnueabi/lib/gcc/arm-s3c2440-linux-gnueabi/5.2.0/libgcc.a(_ashrdi3.o)
                              drivers/mtd/nand/built-in.o (__aeabi_lasr)
/home/gmf/uboot/toolchain/x-tools/arm-s3c2440-linux-gnueabi/lib/gcc/arm-s3c2440-linux-gnueabi/5.2.0/libgcc.a(_ashldi3.o)
                              drivers/mtd/nand/built-in.o (__aeabi_llsl)
/home/gmf/uboot/toolchain/x-tools/arm-s3c2440-linux-gnueabi/lib/gcc/arm-s3c2440-linux-gnueabi/5.2.0/libgcc.a(_dvmd_lnx.o)
                              /home/gmf/uboot/toolchain/x-tools/arm-s3c2440-linux-gnueabi/lib/gcc/arm-s3c2440-linux-gnueabi/5.2.0/libgcc.a(_udivsi3.o) (__aeabi_idiv0)

Discarded input sections

 .data          0x0000000000000000        0x0 arch/arm/cpu/arm920t/start.o
 .bss           0x0000000000000000        0x0 arch/arm/cpu/arm920t/start.o
 .text          0x0000000000000000        0x0 arch/arm/cpu/arm920t/built-in.o
 .text.get_UCLK
                0x0000000000000000       0x40 arch/arm/cpu/arm920t/built-in.o
 .text.udelay_masked
                0x0000000000000000       0x6c arch/arm/cpu/arm920t/built-in.o
 .data          0x0000000000000000        0x0 arch/arm/cpu/arm920t/built-in.o
 .bss           0x0000000000000000        0x0 arch/arm/cpu/arm920t/built-in.o
 .text.invalidate_dcache_range
                0x0000000000000000        0x4 arch/arm/lib/built-in.o
 .text.mmu_page_table_flush
                0x0000000000000000        0x4 arch/arm/lib/built-in.o
 .text.mmu_set_region_dcache_behaviour
                0x0000000000000000       0x4c arch/arm/lib/built-in.o
 .data          0x0000000000000000        0x0 arch/arm/lib/built-in.o
 .__secure_end  0x0000000000000000        0x0 arch/arm/lib/built-in.o
 .__efi_runtime_rel_start
                0x0000000000000000        0x0 arch/arm/lib/built-in.o
 .__secure_start
                0x0000000000000000        0x0 arch/arm/lib/built-in.o
 .__efi_runtime_stop
                0x0000000000000000        0x0 arch/arm/lib/built-in.o
 .__efi_runtime_rel_stop
                0x0000000000000000        0x0 arch/arm/lib/built-in.o
 .__efi_runtime_start
                0x0000000000000000        0x0 arch/arm/lib/built-in.o
 .bss           0x0000000000000000        0x0 arch/arm/lib/built-in.o
 .data          0x0000000000000000        0x0 board/samsung/smdk2410/built-in.o
 .bss           0x0000000000000000        0x0 board/samsung/smdk2410/built-in.o
 .text          0x0000000000000000        0x0 cmd/built-in.o
 .text.flush_dcache_all
                0x0000000000000000        0xc cmd/built-in.o
 .text.getenv_hex
                0x0000000000000000       0x3c cmd/built-in.o
 .data          0x0000000000000000        0x0 cmd/built-in.o
 .bss           0x0000000000000000        0x0 cmd/built-in.o
 .text          0x0000000000000000        0x0 common/built-in.o
 .text.hash_finish_crc32
                0x0000000000000000       0x30 common/built-in.o
 .text.hash_update_crc32
                0x0000000000000000       0x24 common/built-in.o
 .text.hash_init_crc32
                0x0000000000000000       0x24 common/built-in.o
 .text.hash_lookup_algo
                0x0000000000000000       0x28 common/built-in.o
 .text.hash_progressive_lookup_algo
                0x0000000000000000       0x3c common/built-in.o
 .text.hash_parse_string
                0x0000000000000000       0x68 common/built-in.o
 .text.hash_block
                0x0000000000000000       0x6c common/built-in.o
 .text.unset_local_var
                0x0000000000000000       0x9c common/built-in.o
 .text.bootretry_dont_retry
                0x0000000000000000       0x14 common/built-in.o
 .text.red_led_off
                0x0000000000000000        0x4 common/built-in.o
 .text.green_led_on
                0x0000000000000000        0x4 common/built-in.o
 .text.green_led_off
                0x0000000000000000        0x4 common/built-in.o
 .text.yellow_led_on
                0x0000000000000000        0x4 common/built-in.o
 .text.yellow_led_off
                0x0000000000000000        0x4 common/built-in.o
 .text.blue_led_on
                0x0000000000000000        0x4 common/built-in.o
 .text.blue_led_off
                0x0000000000000000        0x4 common/built-in.o
 .text.arch_reserve_stacks
                0x0000000000000000        0x8 common/built-in.o
 .text.fixup_cpu
                0x0000000000000000        0x8 common/built-in.o
 .text.env_flags_parse_varaccess_from_binflags
                0x0000000000000000       0x54 common/built-in.o
 .text.usb_detect_change
                0x0000000000000000       0x68 common/built-in.o
 .text.usb_get_report
                0x0000000000000000       0x6c common/built-in.o
 .text.usb_get_class_descriptor
                0x0000000000000000       0x6c common/built-in.o
 .text.board_usb_init
                0x0000000000000000        0x8 common/built-in.o
 .text.board_usb_cleanup
                0x0000000000000000        0x8 common/built-in.o
 .text.usb_find_usb2_hub_address_port
                0x0000000000000000       0x5c common/built-in.o
 .text.usb_stor_reset
                0x0000000000000000       0x14 common/built-in.o
 .text.splash_screen_prepare
                0x0000000000000000        0x8 common/built-in.o
 .text.overwrite_console
                0x0000000000000000        0x8 common/built-in.o
 .text.serial_printf
                0x0000000000000000       0x44 common/built-in.o
 .text.fputc    0x0000000000000000       0x1c common/built-in.o
 .text.fputs    0x0000000000000000       0x1c common/built-in.o
 .text.fprintf  0x0000000000000000       0x4c common/built-in.o
 .text.disable_ctrlc
                0x0000000000000000       0x18 common/built-in.o
 .text.valloc   0x0000000000000000        0xc common/built-in.o
 .text.pvalloc  0x0000000000000000       0x18 common/built-in.o
 .text.cfree    0x0000000000000000        0x4 common/built-in.o
 .text.malloc_usable_size
                0x0000000000000000       0x3c common/built-in.o
 .text.mallopt  0x0000000000000000       0x54 common/built-in.o
 .text.genimg_get_short_name
                0x0000000000000000       0x1c common/built-in.o
 .text.genimg_get_type_short_name
                0x0000000000000000       0x10 common/built-in.o
 .text.genimg_get_comp_short_name
                0x0000000000000000       0x10 common/built-in.o
 .text.genimg_get_os_short_name
                0x0000000000000000       0x10 common/built-in.o
 .text.genimg_get_arch_short_name
                0x0000000000000000       0x10 common/built-in.o
 .text.get_table_entry_id
                0x0000000000000000       0x4c common/built-in.o
 .text.genimg_get_os_id
                0x0000000000000000       0x18 common/built-in.o
 .text.genimg_get_arch_id
                0x0000000000000000       0x18 common/built-in.o
 .text.genimg_get_type_id
                0x0000000000000000       0x18 common/built-in.o
 .text.genimg_get_comp_id
                0x0000000000000000       0x18 common/built-in.o
 .text.genimg_get_kernel_addr
                0x0000000000000000       0x24 common/built-in.o
 .text.genimg_has_config
                0x0000000000000000        0x8 common/built-in.o
 .text.image_setup_linux
                0x0000000000000000       0x2c common/built-in.o
 .text.get_ram_size
                0x0000000000000000       0xe4 common/built-in.o
 .text.stdio_init
                0x0000000000000000       0x14 common/built-in.o
 .text.cli_simple_parse_line
                0x0000000000000000       0x8c common/built-in.o
 .text.cli_simple_process_macros
                0x0000000000000000      0x20c common/built-in.o
 .text.cli_simple_run_command
                0x0000000000000000      0x140 common/built-in.o
 .text.cli_simple_loop
                0x0000000000000000       0xb4 common/built-in.o
 .text.cli_simple_run_command_list
                0x0000000000000000       0x70 common/built-in.o
 .text.run_command_repeatable
                0x0000000000000000       0x18 common/built-in.o
 .text.cmd_process_error
                0x0000000000000000       0x30 common/built-in.o
 .data          0x0000000000000000        0x0 common/built-in.o
 .data.hash_algo
                0x0000000000000000       0x1c common/built-in.o
 .bss           0x0000000000000000        0x0 common/built-in.o
 .bss.save_addr
                0x0000000000000000        0x4 common/built-in.o
 .bss.save_size
                0x0000000000000000        0x4 common/built-in.o
 .bss.lastcommand.6759
                0x0000000000000000      0x101 common/built-in.o
 .text          0x0000000000000000        0x0 disk/built-in.o
 .text.blk_get_dev
                0x0000000000000000        0x8 disk/built-in.o
 .data          0x0000000000000000        0x0 disk/built-in.o
 .bss           0x0000000000000000        0x0 disk/built-in.o
 .text          0x0000000000000000        0x0 drivers/built-in.o
 .text.rtc_mktime
                0x0000000000000000       0xac drivers/built-in.o
 .text._input_send_keycodes
                0x0000000000000000      0x42c drivers/built-in.o
 .text.input_tstc
                0x0000000000000000       0x4c drivers/built-in.o
 .text.input_getc
                0x0000000000000000       0x60 drivers/built-in.o
 .text.input_send_keycodes
                0x0000000000000000        0x8 drivers/built-in.o
 .text.input_add_keycode
                0x0000000000000000       0x84 drivers/built-in.o
 .text.input_add_table
                0x0000000000000000       0x40 drivers/built-in.o
 .text.input_set_delays
                0x0000000000000000        0xc drivers/built-in.o
 .text.input_allow_repeats
                0x0000000000000000        0x8 drivers/built-in.o
 .text.input_leds_changed
                0x0000000000000000       0x14 drivers/built-in.o
 .text.input_add_tables
                0x0000000000000000       0x78 drivers/built-in.o
 .text.input_init
                0x0000000000000000       0x24 drivers/built-in.o
 .text.input_stdio_register
                0x0000000000000000       0x50 drivers/built-in.o
 .rodata.kbd_to_ansi364
                0x0000000000000000       0x20 drivers/built-in.o
 .rodata.kbd_plain_xlate
                0x0000000000000000       0x64 drivers/built-in.o
 .rodata.str1.1
                0x0000000000000000       0x16 drivers/built-in.o
 .rodata.kbd_plain_xlate_german
                0x0000000000000000       0x84 drivers/built-in.o
 .rodata.CSWTCH.33
                0x0000000000000000        0xd drivers/built-in.o
 .data          0x0000000000000000        0x0 drivers/built-in.o
 .data.kbd_ctrl_xlate
                0x0000000000000000       0x64 drivers/built-in.o
 .data.kbd_right_alt_xlate_german
                0x0000000000000000       0x58 drivers/built-in.o
 .data.kbd_shift_xlate_german
                0x0000000000000000       0x84 drivers/built-in.o
 .data.kbd_entry
                0x0000000000000000       0x8c drivers/built-in.o
 .data.kbd_shift_xlate
                0x0000000000000000       0x64 drivers/built-in.o
 .bss           0x0000000000000000        0x0 drivers/built-in.o
 .text          0x0000000000000000        0x0 drivers/mtd/built-in.o
 .text.idr_remove
                0x0000000000000000       0x14 drivers/mtd/built-in.o
 .text.idr_find
                0x0000000000000000       0x14 drivers/mtd/built-in.o
 .text.idr_alloc
                0x0000000000000000       0x3c drivers/mtd/built-in.o
 .text.mtd_get_unmapped_area
                0x0000000000000000       0x64 drivers/mtd/built-in.o
 .text.mtd_panic_write
                0x0000000000000000       0xa4 drivers/mtd/built-in.o
 .text.mtd_get_fact_prot_info
                0x0000000000000000       0x34 drivers/mtd/built-in.o
 .text.mtd_read_fact_prot_reg
                0x0000000000000000       0x48 drivers/mtd/built-in.o
 .text.mtd_get_user_prot_info
                0x0000000000000000       0x34 drivers/mtd/built-in.o
 .text.mtd_read_user_prot_reg
                0x0000000000000000       0x48 drivers/mtd/built-in.o
 .text.mtd_write_user_prot_reg
                0x0000000000000000       0x68 drivers/mtd/built-in.o
 .text.mtd_lock_user_prot_reg
                0x0000000000000000       0x38 drivers/mtd/built-in.o
 .text.mtd_lock
                0x0000000000000000       0x7c drivers/mtd/built-in.o
 .text.mtd_is_locked
                0x0000000000000000       0x7c drivers/mtd/built-in.o
 .text.mtd_block_isreserved
                0x0000000000000000       0x54 drivers/mtd/built-in.o
 .text.flash_sector_size
                0x0000000000000000       0x38 drivers/mtd/built-in.o
 .data          0x0000000000000000        0x0 drivers/mtd/built-in.o
 .bss           0x0000000000000000        0x0 drivers/mtd/built-in.o
 .bss.mtd_table
                0x0000000000000000       0x80 drivers/mtd/built-in.o
 .text          0x0000000000000000        0x0 drivers/mtd/nand/built-in.o
 .text.onfi_async_timing_mode_to_sdr_timings
                0x0000000000000000       0x1c drivers/mtd/nand/built-in.o
 .rodata.onfi_sdr_timings
                0x0000000000000000      0x360 drivers/mtd/nand/built-in.o
 .data          0x0000000000000000        0x0 drivers/mtd/nand/built-in.o
 .data.nand_manuf_ids
                0x0000000000000000       0x78 drivers/mtd/nand/built-in.o
 .bss           0x0000000000000000        0x0 drivers/mtd/nand/built-in.o
 .text          0x0000000000000000        0x0 drivers/mtd/ubi/built-in.o
 .text.ubi_enumerate_volumes
                0x0000000000000000       0x48 drivers/mtd/ubi/built-in.o
 .text.ubi_get_by_major
                0x0000000000000000       0x50 drivers/mtd/ubi/built-in.o
 .text.ubi_major2num
                0x0000000000000000       0x44 drivers/mtd/ubi/built-in.o
 .text.ubi_vtbl_rename_volumes
                0x0000000000000000       0xf8 drivers/mtd/ubi/built-in.o
 .text.ubi_remove_volume
                0x0000000000000000       0xf4 drivers/mtd/ubi/built-in.o
 .text.ubi_rename_volumes
                0x0000000000000000       0xa0 drivers/mtd/ubi/built-in.o
 .text.ubi_start_leb_change
                0x0000000000000000       0xd8 drivers/mtd/ubi/built-in.o
 .text.ubi_more_leb_change_data
                0x0000000000000000      0x134 drivers/mtd/ubi/built-in.o
 .text.ubi_leb_write
                0x0000000000000000       0xd0 drivers/mtd/ubi/built-in.o
 .text.ubi_leb_change
                0x0000000000000000       0xc4 drivers/mtd/ubi/built-in.o
 .text.ubi_leb_erase
                0x0000000000000000       0x8c drivers/mtd/ubi/built-in.o
 .text.ubi_leb_map
                0x0000000000000000       0x80 drivers/mtd/ubi/built-in.o
 .text.ubi_sync
                0x0000000000000000       0x3c drivers/mtd/ubi/built-in.o
 .text.ubi_flush
                0x0000000000000000       0x40 drivers/mtd/ubi/built-in.o
 .text.ubi_next_sqnum
                0x0000000000000000       0x28 drivers/mtd/ubi/built-in.o
 .text.self_check_eba
                0x0000000000000000      0x200 drivers/mtd/ubi/built-in.o
 .text.ubi_thread
                0x0000000000000000       0xc0 drivers/mtd/ubi/built-in.o
 .text.ubi_dump_mkvol_req
                0x0000000000000000       0x1c drivers/mtd/ubi/built-in.o
 .data          0x0000000000000000        0x0 drivers/mtd/ubi/built-in.o
 .bss           0x0000000000000000        0x0 drivers/mtd/ubi/built-in.o
 .text          0x0000000000000000        0x0 drivers/net/built-in.o
 .text.cs8900_e2prom_ready
                0x0000000000000000       0x24 drivers/net/built-in.o
 .text.cs8900_e2prom_read
                0x0000000000000000       0x54 drivers/net/built-in.o
 .text.cs8900_e2prom_write
                0x0000000000000000       0x90 drivers/net/built-in.o
 .data          0x0000000000000000        0x0 drivers/net/built-in.o
 .bss           0x0000000000000000        0x0 drivers/net/built-in.o
 .text          0x0000000000000000        0x0 drivers/serial/built-in.o
 .text.serial_reinit_all
                0x0000000000000000       0x2c drivers/serial/built-in.o
 .text.default_serial_puts
                0x0000000000000000       0x30 drivers/serial/built-in.o
 .data          0x0000000000000000        0x0 drivers/serial/built-in.o
 .bss           0x0000000000000000        0x0 drivers/serial/built-in.o
 .text          0x0000000000000000        0x0 drivers/spi/built-in.o
 .text.spi_set_wordlen
                0x0000000000000000       0x30 drivers/spi/built-in.o
 .text.spi_do_alloc_slave
                0x0000000000000000       0x4c drivers/spi/built-in.o
 .rodata.str1.1
                0x0000000000000000       0x19 drivers/spi/built-in.o
 .data          0x0000000000000000        0x0 drivers/spi/built-in.o
 .bss           0x0000000000000000        0x0 drivers/spi/built-in.o
 .comment       0x0000000000000000       0x3d drivers/spi/built-in.o
 .note.GNU-stack
                0x0000000000000000        0x0 drivers/spi/built-in.o
 .ARM.attributes
                0x0000000000000000       0x2a drivers/spi/built-in.o
 .debug_aranges
                0x0000000000000000       0x28 drivers/spi/built-in.o
 .debug_info    0x0000000000000000      0x4e5 drivers/spi/built-in.o
 .debug_abbrev  0x0000000000000000      0x184 drivers/spi/built-in.o
 .debug_line    0x0000000000000000       0xef drivers/spi/built-in.o
 .debug_frame   0x0000000000000000       0x4c drivers/spi/built-in.o
 .debug_str     0x0000000000000000      0x469 drivers/spi/built-in.o
 .debug_loc     0x0000000000000000      0x10f drivers/spi/built-in.o
 .debug_ranges  0x0000000000000000       0x18 drivers/spi/built-in.o
 .text          0x0000000000000000        0x0 drivers/usb/host/built-in.o
 .text.rh_check_port_status
                0x0000000000000000       0x54 drivers/usb/host/built-in.o
 .data          0x0000000000000000        0x0 drivers/usb/host/built-in.o
 .bss           0x0000000000000000        0x0 drivers/usb/host/built-in.o
 .text          0x0000000000000000        0x0 fs/built-in.o
 .text.fs_uuid  0x0000000000000000       0x28 fs/built-in.o
 .text.fs_write
                0x0000000000000000       0x9c fs/built-in.o
 .text.do_save  0x0000000000000000      0x190 fs/built-in.o
 .text.do_fs_uuid
                0x0000000000000000       0x8c fs/built-in.o
 .text.do_fs_type
                0x0000000000000000       0x70 fs/built-in.o
 .text.fat_register_device
                0x0000000000000000       0x88 fs/built-in.o
 .text.file_fat_read
                0x0000000000000000       0x3c fs/built-in.o
 .text.file_getfsname
                0x0000000000000000       0x18 fs/built-in.o
 .text.file_cd  0x0000000000000000      0x1c0 fs/built-in.o
 .text.file_detectfs
                0x0000000000000000       0x40 fs/built-in.o
 .text.file_ls  0x0000000000000000       0x94 fs/built-in.o
 .text.file_read
                0x0000000000000000       0xa4 fs/built-in.o
 .text.ubifs_leb_write
                0x0000000000000000       0x44 fs/built-in.o
 .text.ubifs_leb_change
                0x0000000000000000       0x44 fs/built-in.o
 .text.ubifs_leb_map
                0x0000000000000000       0x44 fs/built-in.o
 .text.ubifs_prepare_node
                0x0000000000000000      0x12c fs/built-in.o
 .text.ubifs_prep_grp_node
                0x0000000000000000      0x100 fs/built-in.o
 .text.ubifs_wbuf_sync_nolock
                0x0000000000000000      0x11c fs/built-in.o
 .text.ubifs_wbuf_add_ino_nolock
                0x0000000000000000       0x2c fs/built-in.o
 .text.ubifs_sync_wbufs_by_inode
                0x0000000000000000       0x88 fs/built-in.o
 .text.set_anon_super
                0x0000000000000000        0x8 fs/built-in.o
 .text.iget_failed
                0x0000000000000000        0x4 fs/built-in.o
 .text.unlock_new_inode
                0x0000000000000000        0x4 fs/built-in.o
 .text.fixup_leb
                0x0000000000000000       0x5c fs/built-in.o
 .text.ubifs_write_sb_node
                0x0000000000000000       0x40 fs/built-in.o
 .text.ubifs_fixup_free_space
                0x0000000000000000      0x20c fs/built-in.o
 .text.pack_bits
                0x0000000000000000       0xd0 fs/built-in.o
 .text.scan_get_pnode
                0x0000000000000000      0x174 fs/built-in.o
 .text.ubifs_pack_pnode
                0x0000000000000000       0xec fs/built-in.o
 .text.ubifs_pack_nnode
                0x0000000000000000       0xe0 fs/built-in.o
 .text.ubifs_pack_ltab
                0x0000000000000000       0xb8 fs/built-in.o
 .text.ubifs_pack_lsave
                0x0000000000000000       0xa0 fs/built-in.o
 .text.ubifs_create_dflt_lpt
                0x0000000000000000      0x860 fs/built-in.o
 .text.scan_get_nnode
                0x0000000000000000      0x11c fs/built-in.o
 .text.ubifs_lpt_lookup
                0x0000000000000000       0x9c fs/built-in.o
 .text.ubifs_lpt_scan_nolock
                0x0000000000000000      0x328 fs/built-in.o
 .text.dbg_check_lpt_nodes
                0x0000000000000000        0x8 fs/built-in.o
 .text.first_dirty_cnode
                0x0000000000000000       0x44 fs/built-in.o
 .text.alloc_lpt_leb
                0x0000000000000000       0xdc fs/built-in.o
 .text.need_write_all
                0x0000000000000000       0xa8 fs/built-in.o
 .text.lpt_tgc_start
                0x0000000000000000       0x78 fs/built-in.o
 .text.pnode_lookup
                0x0000000000000000       0x84 fs/built-in.o
 .text.do_make_pnode_dirty
                0x0000000000000000       0xa8 fs/built-in.o
 .text.lpt_gc   0x0000000000000000      0x428 fs/built-in.o
 .text.ubifs_lpt_start_commit
                0x0000000000000000      0x8f0 fs/built-in.o
 .text.ubifs_lpt_post_commit
                0x0000000000000000       0xa0 fs/built-in.o
 .text.ubifs_ensure_cat
                0x0000000000000000       0x58 fs/built-in.o
 .text.ubifs_get_lp_stats
                0x0000000000000000       0x14 fs/built-in.o
 .text.ubifs_read_one_lp
                0x0000000000000000       0x2c fs/built-in.o
 .text.ubifs_fast_find_free
                0x0000000000000000       0x18 fs/built-in.o
 .text.ubifs_fast_find_empty
                0x0000000000000000       0x14 fs/built-in.o
 .text.ubifs_fast_find_freeable
                0x0000000000000000       0x1c fs/built-in.o
 .text.ubifs_fast_find_frdi_idx
                0x0000000000000000       0x14 fs/built-in.o
 .text.dbg_check_cats
                0x0000000000000000        0x8 fs/built-in.o
 .text.dbg_check_heap
                0x0000000000000000        0x4 fs/built-in.o
 .text.dbg_check_lprops
                0x0000000000000000        0x8 fs/built-in.o
 .text.left_znode
                0x0000000000000000       0x74 fs/built-in.o
 .text.lookup_znode
                0x0000000000000000      0x2c8 fs/built-in.o
 .text.ubifs_tnc_get_bu_keys
                0x0000000000000000      0x234 fs/built-in.o
 .text.ubifs_tnc_bulk_read
                0x0000000000000000      0x1e8 fs/built-in.o
 .text.ubifs_tnc_lookup_nm
                0x0000000000000000       0xd8 fs/built-in.o
 .text.ubifs_tnc_replace
                0x0000000000000000      0x2ac fs/built-in.o
 .text.is_idx_node_in_tnc
                0x0000000000000000       0x38 fs/built-in.o
 .text.ubifs_tnc_has_node
                0x0000000000000000      0x1c8 fs/built-in.o
 .text.ubifs_dirty_idx_node
                0x0000000000000000       0x48 fs/built-in.o
 .text.dbg_check_inode_size
                0x0000000000000000        0x8 fs/built-in.o
 .text.ubifs_tnc_levelorder_next
                0x0000000000000000      0x16c fs/built-in.o
 .text.dump_znode
                0x0000000000000000        0x8 fs/built-in.o
 .text.dbg_snprintf_key
                0x0000000000000000       0xf8 fs/built-in.o
 .text.dbg_ntype
                0x0000000000000000       0x1c fs/built-in.o
 .text.dbg_cstate
                0x0000000000000000       0x1c fs/built-in.o
 .text.dbg_jhead
                0x0000000000000000       0x1c fs/built-in.o
 .text.ubifs_dump_budget_req
                0x0000000000000000        0x4 fs/built-in.o
 .text.ubifs_dump_lstats
                0x0000000000000000        0x4 fs/built-in.o
 .text.ubifs_dump_budg
                0x0000000000000000        0x4 fs/built-in.o
 .text.ubifs_dump_lprop
                0x0000000000000000       0x38 fs/built-in.o
 .text.ubifs_dump_lprops
                0x0000000000000000       0x54 fs/built-in.o
 .text.ubifs_dump_lpt_info
                0x0000000000000000        0x4 fs/built-in.o
 .text.ubifs_dump_sleb
                0x0000000000000000       0x14 fs/built-in.o
 .text.ubifs_dump_leb
                0x0000000000000000       0x70 fs/built-in.o
 .text.ubifs_dump_heap
                0x0000000000000000        0x4 fs/built-in.o
 .text.ubifs_dump_tnc
                0x0000000000000000       0x28 fs/built-in.o
 .text.dbg_walk_index
                0x0000000000000000      0x1a0 fs/built-in.o
 .text.ubifs_dump_index
                0x0000000000000000       0x14 fs/built-in.o
 .text.add_node
                0x0000000000000000       0xd0 fs/built-in.o
 .text.destroy_done_tree
                0x0000000000000000       0x30 fs/built-in.o
 .text.ubifs_add_bud_to_log
                0x0000000000000000      0x2c8 fs/built-in.o
 .text.ubifs_log_start_commit
                0x0000000000000000      0x300 fs/built-in.o
 .text.ubifs_log_end_commit
                0x0000000000000000       0x38 fs/built-in.o
 .text.ubifs_log_post_commit
                0x0000000000000000       0xb0 fs/built-in.o
 .text.ubifs_consolidate_log
                0x0000000000000000      0x2ac fs/built-in.o
 .text.ubifs_add_orphan
                0x0000000000000000      0x108 fs/built-in.o
 .text.ubifs_delete_orphan
                0x0000000000000000       0xcc fs/built-in.o
 .text.ubifs_orphan_start_commit
                0x0000000000000000       0x78 fs/built-in.o
 .text.ubifs_orphan_end_commit
                0x0000000000000000      0x3b8 fs/built-in.o
 .text.recover_head
                0x0000000000000000       0xd4 fs/built-in.o
 .text.ubifs_write_rcvrd_mst_node
                0x0000000000000000      0x158 fs/built-in.o
 .text.ubifs_recover_inl_heads
                0x0000000000000000       0x3c fs/built-in.o
 .text.ubifs_clean_lebs
                0x0000000000000000      0x1dc fs/built-in.o
 .text.ubifs_rcvry_gc_commit
                0x0000000000000000        0x8 fs/built-in.o
 .text.yaffs_get_file_size
                0x0000000000000000       0x50 fs/built-in.o
 .text.yaffs_set_attribs
                0x0000000000000000       0x8c fs/built-in.o
 .text.yaffs_get_attribs
                0x0000000000000000       0x50 fs/built-in.o
 .text.yaffs_bug_fn
                0x0000000000000000       0x14 fs/built-in.o
 .text.yaffsfs_malloc
                0x0000000000000000        0x4 fs/built-in.o
 .text.yaffsfs_free
                0x0000000000000000        0x4 fs/built-in.o
 .text.yaffsfs_GetLastError
                0x0000000000000000       0x10 fs/built-in.o
 .text.yaffsfs_GetError
                0x0000000000000000       0x10 fs/built-in.o
 .text.yaffs_malloc
                0x0000000000000000        0x4 fs/built-in.o
 .text.yaffs_free
                0x0000000000000000        0x4 fs/built-in.o
 .text.yaffsfs_LocalInitialisation
                0x0000000000000000        0x4 fs/built-in.o
 .text.yaffs_error_to_str
                0x0000000000000000       0x44 fs/built-in.o
 .text.yaffsfs_DoChMod
                0x0000000000000000       0x5c fs/built-in.o
 .text.yaffsfs_DoUtime
                0x0000000000000000       0xa4 fs/built-in.o
 .text.yaffs_set_trace
                0x0000000000000000       0x10 fs/built-in.o
 .text.yaffs_get_trace
                0x0000000000000000       0x10 fs/built-in.o
 .text.yaffsfs_Match
                0x0000000000000000       0x10 fs/built-in.o
 .text.yaffs_do_setxattr
                0x0000000000000000      0x12c fs/built-in.o
 .text.yaffs_do_getxattr
                0x0000000000000000      0x124 fs/built-in.o
 .text.yaffs_do_listxattr
                0x0000000000000000      0x114 fs/built-in.o
 .text.yaffs_do_removexattr
                0x0000000000000000      0x10c fs/built-in.o
 .text.yaffsfs_CheckNameLength
                0x0000000000000000       0x38 fs/built-in.o
 .text.yaffs_dup
                0x0000000000000000       0xac fs/built-in.o
 .text.yaffs_Dofsync
                0x0000000000000000       0x5c fs/built-in.o
 .text.yaffs_fsync
                0x0000000000000000        0x8 fs/built-in.o
 .text.yaffs_flush
                0x0000000000000000        0x4 fs/built-in.o
 .text.yaffs_fdatasync
                0x0000000000000000        0x8 fs/built-in.o
 .text.yaffs_pread
                0x0000000000000000        0x8 fs/built-in.o
 .text.yaffs_pwrite
                0x0000000000000000        0x8 fs/built-in.o
 .text.yaffs_truncate
                0x0000000000000000      0x138 fs/built-in.o
 .text.yaffs_ftruncate
                0x0000000000000000       0xb0 fs/built-in.o
 .text.yaffs_lseek
                0x0000000000000000       0xe8 fs/built-in.o
 .text.yaffs_fstat
                0x0000000000000000       0x5c fs/built-in.o
 .text.yaffs_utime
                0x0000000000000000       0xd8 fs/built-in.o
 .text.yaffs_futime
                0x0000000000000000       0x48 fs/built-in.o
 .text.yaffs_setxattr
                0x0000000000000000       0x20 fs/built-in.o
 .text.yaffs_lsetxattr
                0x0000000000000000       0x20 fs/built-in.o
 .text.yaffs_fsetxattr
                0x0000000000000000       0x80 fs/built-in.o
 .text.yaffs_getxattr
                0x0000000000000000       0x18 fs/built-in.o
 .text.yaffs_lgetxattr
                0x0000000000000000       0x18 fs/built-in.o
 .text.yaffs_fgetxattr
                0x0000000000000000       0x78 fs/built-in.o
 .text.yaffs_listxattr
                0x0000000000000000        0x8 fs/built-in.o
 .text.yaffs_llistxattr
                0x0000000000000000        0x8 fs/built-in.o
 .text.yaffs_flistxattr
                0x0000000000000000       0x68 fs/built-in.o
 .text.yaffs_removexattr
                0x0000000000000000        0x8 fs/built-in.o
 .text.yaffs_lremovexattr
                0x0000000000000000        0x8 fs/built-in.o
 .text.yaffs_fremovexattr
                0x0000000000000000       0x60 fs/built-in.o
 .text.yaffs_access
                0x0000000000000000      0x148 fs/built-in.o
 .text.yaffs_chmod
                0x0000000000000000      0x104 fs/built-in.o
 .text.yaffs_fchmod
                0x0000000000000000       0x74 fs/built-in.o
 .text.yaffs_getdev
                0x0000000000000000       0x14 fs/built-in.o
 .text.yaffs_mount2
                0x0000000000000000        0x8 fs/built-in.o
 .text.yaffs_sync
                0x0000000000000000       0x90 fs/built-in.o
 .text.yaffs_remount
                0x0000000000000000       0xb8 fs/built-in.o
 .text.yaffs_totalspace
                0x0000000000000000       0xb4 fs/built-in.o
 .text.yaffs_inodecount
                0x0000000000000000       0x88 fs/built-in.o
 .text.yaffs_remove_device
                0x0000000000000000       0x20 fs/built-in.o
 .text.yaffs_rewinddir
                0x0000000000000000       0x1c fs/built-in.o
 .text.yaffs_symlink
                0x0000000000000000      0x15c fs/built-in.o
 .text.yaffs_readlink
                0x0000000000000000      0x10c fs/built-in.o
 .text.yaffs_link
                0x0000000000000000      0x1e8 fs/built-in.o
 .text.yaffs_mknod
                0x0000000000000000       0x14 fs/built-in.o
 .text.yaffs_n_handles
                0x0000000000000000       0x7c fs/built-in.o
 .text.yaffs_get_error
                0x0000000000000000        0x4 fs/built-in.o
 .text.yaffs_set_error
                0x0000000000000000       0x10 fs/built-in.o
 .text.yaffs_dump_dev
                0x0000000000000000        0x8 fs/built-in.o
 .text.yaffs_do_xattrib_fetch
                0x0000000000000000      0x118 fs/built-in.o
 .text.yaffs_is_managed_tmp_buffer
                0x0000000000000000       0x98 fs/built-in.o
 .text.yaffs_root
                0x0000000000000000        0x8 fs/built-in.o
 .text.yaffs_lost_n_found
                0x0000000000000000        0x8 fs/built-in.o
 .text.yaffs_max_file_size
                0x0000000000000000       0x30 fs/built-in.o
 .text.yaffs_handle_defered_free
                0x0000000000000000       0x10 fs/built-in.o
 .text.yaffs_get_xattrib
                0x0000000000000000        0x4 fs/built-in.o
 .text.yaffs_list_xattrib
                0x0000000000000000       0x10 fs/built-in.o
 .text.yaffs_update_dirty_dirs
                0x0000000000000000       0x98 fs/built-in.o
 .text.yaffs_remove_xattrib
                0x0000000000000000       0x54 fs/built-in.o
 .text.yaffs_set_xattrib
                0x0000000000000000       0x5c fs/built-in.o
 .text.yaffs_bg_gc
                0x0000000000000000       0x54 fs/built-in.o
 .text.yaffs_create_special
                0x0000000000000000       0x3c fs/built-in.o
 .text.yaffs_create_symlink
                0x0000000000000000       0x3c fs/built-in.o
 .text.yaffs_link_obj
                0x0000000000000000       0x54 fs/built-in.o
 .text.yaffs_get_obj_inode
                0x0000000000000000       0x10 fs/built-in.o
 .text.yaffs_get_obj_type
                0x0000000000000000       0x78 fs/built-in.o
 .text.yaffs_get_symlink_alias
                0x0000000000000000       0x24 fs/built-in.o
 .text.yaffs_oh_size_load
                0x0000000000000000        0xc fs/built-in.o
 .text.nval_get
                0x0000000000000000       0xec fs/built-in.o
 .text.nval_list
                0x0000000000000000      0x110 fs/built-in.o
 .text.yaffs_pack_tags1
                0x0000000000000000       0x98 fs/built-in.o
 .text.yaffs_unpack_tags1
                0x0000000000000000       0xa8 fs/built-in.o
 .text.yaffs_verify_link
                0x0000000000000000        0x4 fs/built-in.o
 .text.yaffs_verify_symlink
                0x0000000000000000        0x4 fs/built-in.o
 .text.yaffs_verify_special
                0x0000000000000000        0x4 fs/built-in.o
 .text.nandmtd_WriteChunkToNAND
                0x0000000000000000      0x160 fs/built-in.o
 .text.nandmtd_ReadChunkFromNAND
                0x0000000000000000      0x164 fs/built-in.o
 .rodata.filesystems
                0x0000000000000000       0x18 fs/built-in.o
 .rodata.CSWTCH.37
                0x0000000000000000       0x14 fs/built-in.o
 .rodata.CSWTCH.44
                0x0000000000000000       0x18 fs/built-in.o
 .rodata.CSWTCH.46
                0x0000000000000000        0xc fs/built-in.o
 .rodata.CSWTCH.42
                0x0000000000000000       0x30 fs/built-in.o
 .rodata.error_list
                0x0000000000000000       0xa8 fs/built-in.o
 .rodata.all_ff
                0x0000000000000000       0x14 fs/built-in.o
 .data          0x0000000000000000        0x0 fs/built-in.o
 .data.file_cwd
                0x0000000000000000      0x200 fs/built-in.o
 .data.current_filesystem
                0x0000000000000000        0x4 fs/built-in.o
 .bss           0x0000000000000000        0x0 fs/built-in.o
 .bss.ext4fs_symlinknest
                0x0000000000000000        0x4 fs/built-in.o
 .bss.g_parent_inode
                0x0000000000000000        0x4 fs/built-in.o
 .text          0x0000000000000000        0x0 lib/built-in.o
 .text.LzmaDec_InitDicAndState
                0x0000000000000000       0x34 lib/built-in.o
 .text.LzmaDec_DecodeToBuf
                0x0000000000000000      0x108 lib/built-in.o
 .text.LzmaDec_Free
                0x0000000000000000       0x2c lib/built-in.o
 .text.LzmaDec_Allocate
                0x0000000000000000       0xb4 lib/built-in.o
 .text.inflateInit_
                0x0000000000000000       0x10 lib/built-in.o
 .text.BZ2_bzlibVersion
                0x0000000000000000        0xc lib/built-in.o
 .text.BZ2_hbMakeCodeLengths
                0x0000000000000000      0x3a4 lib/built-in.o
 .text.BZ2_hbAssignCodes
                0x0000000000000000       0x44 lib/built-in.o
 .text.crc7     0x0000000000000000       0x24 lib/built-in.o
 .text.crc8     0x0000000000000000       0x50 lib/built-in.o
 .text.lmb_dump_all
                0x0000000000000000        0x4 lib/built-in.o
 .text.lmb_free
                0x0000000000000000      0x100 lib/built-in.o
 .text.lmb_is_reserved
                0x0000000000000000       0x5c lib/built-in.o
 .text.arch_lmb_reserve
                0x0000000000000000        0x4 lib/built-in.o
 .text.ldiv     0x0000000000000000       0x50 lib/built-in.o
 .text.strcmp_compar
                0x0000000000000000        0xc lib/built-in.o
 .text.rc4_encode
                0x0000000000000000       0xec lib/built-in.o
 .text.__rb_erase_color
                0x0000000000000000      0x268 lib/built-in.o
 .text.__rb_insert_augmented
                0x0000000000000000      0x160 lib/built-in.o
 .text.rb_prev  0x0000000000000000       0x60 lib/built-in.o
 .text.rb_replace_node
                0x0000000000000000       0x60 lib/built-in.o
 .text.hmatch_r
                0x0000000000000000       0xa0 lib/built-in.o
 .text.print_freq
                0x0000000000000000      0x1c8 lib/built-in.o
 .text.crc32_wd_buf
                0x0000000000000000       0x4c lib/built-in.o
 .text.membuff_purge
                0x0000000000000000       0x10 lib/built-in.o
 .text.membuff_putraw
                0x0000000000000000       0xc0 lib/built-in.o
 .text.membuff_putbyte
                0x0000000000000000       0x30 lib/built-in.o
 .text.membuff_getraw
                0x0000000000000000       0x98 lib/built-in.o
 .text.membuff_getbyte
                0x0000000000000000       0x34 lib/built-in.o
 .text.membuff_peekbyte
                0x0000000000000000       0x30 lib/built-in.o
 .text.membuff_get
                0x0000000000000000       0x80 lib/built-in.o
 .text.membuff_put
                0x0000000000000000       0x60 lib/built-in.o
 .text.membuff_isempty
                0x0000000000000000       0x18 lib/built-in.o
 .text.membuff_avail
                0x0000000000000000       0x54 lib/built-in.o
 .text.membuff_size
                0x0000000000000000        0xc lib/built-in.o
 .text.membuff_makecontig
                0x0000000000000000       0x80 lib/built-in.o
 .text.membuff_free
                0x0000000000000000       0x30 lib/built-in.o
 .text.membuff_readline
                0x0000000000000000       0xb8 lib/built-in.o
 .text.membuff_extend_by
                0x0000000000000000       0xc0 lib/built-in.o
 .text.membuff_init
                0x0000000000000000       0x18 lib/built-in.o
 .text.membuff_new
                0x0000000000000000       0x38 lib/built-in.o
 .text.membuff_uninit
                0x0000000000000000       0x18 lib/built-in.o
 .text.membuff_dispose
                0x0000000000000000       0x24 lib/built-in.o
 .text.strncasecmp
                0x0000000000000000       0x8c lib/built-in.o
 .text.strcasecmp
                0x0000000000000000        0x8 lib/built-in.o
 .text.strrchr  0x0000000000000000       0x3c lib/built-in.o
 .text.strspn   0x0000000000000000       0x3c lib/built-in.o
 .text.strtok   0x0000000000000000       0x84 lib/built-in.o
 .text.strswab  0x0000000000000000       0x48 lib/built-in.o
 .text.bcopy    0x0000000000000000       0x24 lib/built-in.o
 .text.strlcpy  0x0000000000000000       0x50 lib/built-in.o
 .text.memchr   0x0000000000000000       0x30 lib/built-in.o
 .text.memchr_inv
                0x0000000000000000      0x140 lib/built-in.o
 .text.tick_to_time
                0x0000000000000000       0x64 lib/built-in.o
 .text.get_ticks
                0x0000000000000000       0x40 lib/built-in.o
 .text.timer_init
                0x0000000000000000        0x8 lib/built-in.o
 .text.get_timer
                0x0000000000000000       0x18 lib/built-in.o
 .text.timer_get_us
                0x0000000000000000       0x24 lib/built-in.o
 .text.__udelay
                0x0000000000000000       0x9c lib/built-in.o
 .text.vsnprintf
                0x0000000000000000        0x4 lib/built-in.o
 .text.scnprintf
                0x0000000000000000       0x28 lib/built-in.o
 .text.__assert_fail
                0x0000000000000000       0x14 lib/built-in.o
 .text.print_grouped_ull
                0x0000000000000000       0x88 lib/built-in.o
 .text.panic_str
                0x0000000000000000        0xc lib/built-in.o
 .text.trailing_strtoln
                0x0000000000000000       0x5c lib/built-in.o
 .text.trailing_strtol
                0x0000000000000000        0x8 lib/built-in.o
 .rodata.z_errmsg
                0x0000000000000000       0x28 lib/built-in.o
 .rodata.crc7_syndrome_table
                0x0000000000000000      0x100 lib/built-in.o
 .rodata.names.6812
                0x0000000000000000        0x3 lib/built-in.o
 .data          0x0000000000000000        0x0 lib/built-in.o
 .data.cur      0x0000000000000000        0x4 lib/built-in.o
 .data.current  0x0000000000000000        0x4 lib/built-in.o
 .bss           0x0000000000000000        0x0 lib/built-in.o
 .bss.___strtok
                0x0000000000000000        0x4 lib/built-in.o
 .text          0x0000000000000000        0x0 net/built-in.o
 .text.add_ip_checksums
                0x0000000000000000       0x48 net/built-in.o
 .text.eth_unregister
                0x0000000000000000       0x98 net/built-in.o
 .text.eth_is_active
                0x0000000000000000       0x1c net/built-in.o
 .text.net_get_udp_handler
                0x0000000000000000       0x10 net/built-in.o
 .text.net_set_arp_handler
                0x0000000000000000       0x20 net/built-in.o
 .text.random_port
                0x0000000000000000       0x1c net/built-in.o
 .text.vlan_to_string
                0x0000000000000000       0x4c net/built-in.o
 .text.getenv_vlan
                0x0000000000000000       0x10 net/built-in.o
 .data          0x0000000000000000        0x0 net/built-in.o
 .data.tftp_timeout_ms
                0x0000000000000000        0x4 net/built-in.o
 .bss           0x0000000000000000        0x0 net/built-in.o
 .text          0x0000000000000000        0x0 arch/arm/lib/eabi_compat.o
 .data          0x0000000000000000        0x0 arch/arm/lib/eabi_compat.o
 .bss           0x0000000000000000        0x0 arch/arm/lib/eabi_compat.o
 .text.__aeabi_unwind_cpp_pr0
                0x0000000000000000        0x4 arch/arm/lib/eabi_compat.o
 .text.__aeabi_unwind_cpp_pr1
                0x0000000000000000        0x4 arch/arm/lib/eabi_compat.o
 .text.__aeabi_memcpy
                0x0000000000000000        0x4 arch/arm/lib/eabi_compat.o
 .text.__aeabi_memset
                0x0000000000000000       0x10 arch/arm/lib/eabi_compat.o
 .data          0x0000000000000000        0x0 /home/gmf/uboot/toolchain/x-tools/arm-s3c2440-linux-gnueabi/lib/gcc/arm-s3c2440-linux-gnueabi/5.2.0/libgcc.a(_udivsi3.o)
 .bss           0x0000000000000000        0x0 /home/gmf/uboot/toolchain/x-tools/arm-s3c2440-linux-gnueabi/lib/gcc/arm-s3c2440-linux-gnueabi/5.2.0/libgcc.a(_udivsi3.o)
 .data          0x0000000000000000        0x0 /home/gmf/uboot/toolchain/x-tools/arm-s3c2440-linux-gnueabi/lib/gcc/arm-s3c2440-linux-gnueabi/5.2.0/libgcc.a(_divsi3.o)
 .bss           0x0000000000000000        0x0 /home/gmf/uboot/toolchain/x-tools/arm-s3c2440-linux-gnueabi/lib/gcc/arm-s3c2440-linux-gnueabi/5.2.0/libgcc.a(_divsi3.o)
 .data          0x0000000000000000        0x0 /home/gmf/uboot/toolchain/x-tools/arm-s3c2440-linux-gnueabi/lib/gcc/arm-s3c2440-linux-gnueabi/5.2.0/libgcc.a(_lshrdi3.o)
 .bss           0x0000000000000000        0x0 /home/gmf/uboot/toolchain/x-tools/arm-s3c2440-linux-gnueabi/lib/gcc/arm-s3c2440-linux-gnueabi/5.2.0/libgcc.a(_lshrdi3.o)
 .data          0x0000000000000000        0x0 /home/gmf/uboot/toolchain/x-tools/arm-s3c2440-linux-gnueabi/lib/gcc/arm-s3c2440-linux-gnueabi/5.2.0/libgcc.a(_ashrdi3.o)
 .bss           0x0000000000000000        0x0 /home/gmf/uboot/toolchain/x-tools/arm-s3c2440-linux-gnueabi/lib/gcc/arm-s3c2440-linux-gnueabi/5.2.0/libgcc.a(_ashrdi3.o)
 .data          0x0000000000000000        0x0 /home/gmf/uboot/toolchain/x-tools/arm-s3c2440-linux-gnueabi/lib/gcc/arm-s3c2440-linux-gnueabi/5.2.0/libgcc.a(_ashldi3.o)
 .bss           0x0000000000000000        0x0 /home/gmf/uboot/toolchain/x-tools/arm-s3c2440-linux-gnueabi/lib/gcc/arm-s3c2440-linux-gnueabi/5.2.0/libgcc.a(_ashldi3.o)
 .data          0x0000000000000000        0x0 /home/gmf/uboot/toolchain/x-tools/arm-s3c2440-linux-gnueabi/lib/gcc/arm-s3c2440-linux-gnueabi/5.2.0/libgcc.a(_dvmd_lnx.o)
 .bss           0x0000000000000000        0x0 /home/gmf/uboot/toolchain/x-tools/arm-s3c2440-linux-gnueabi/lib/gcc/arm-s3c2440-linux-gnueabi/5.2.0/libgcc.a(_dvmd_lnx.o)

Memory Configuration

Name             Origin             Length             Attributes
*default*        0x0000000000000000 0xffffffffffffffff

Linker script and memory map

Address of section .text set to 0x0
                0x0000000000000000                . = 0x0
                0x0000000000000000                . = ALIGN (0x4)

.text           0x0000000000000000    0x5dca8
 *(.__image_copy_start)
 .__image_copy_start
                0x0000000000000000        0x0 arch/arm/lib/built-in.o
                0x0000000000000000                __image_copy_start
 *(.vectors)
 .vectors       0x0000000000000000      0x300 arch/arm/lib/built-in.o
                0x0000000000000000                _start
                0x0000000000000020                _undefined_instruction
                0x0000000000000024                _software_interrupt
                0x0000000000000028                _prefetch_abort
                0x000000000000002c                _data_abort
                0x0000000000000030                _not_used
                0x0000000000000034                _irq
                0x0000000000000038                _fiq
                0x0000000000000040                IRQ_STACK_START_IN
 arch/arm/cpu/arm920t/start.o(.text*)
 .text          0x0000000000000300       0x90 arch/arm/cpu/arm920t/start.o
                0x0000000000000300                reset
                0x0000000000000348                c_runtime_cpu_setup
 *(.text*)
 .text.cleanup_before_linux
                0x0000000000000390       0x1c arch/arm/cpu/arm920t/built-in.o
                0x0000000000000390                cleanup_before_linux
 .text.print_cpuinfo
                0x00000000000003ac       0x74 arch/arm/cpu/arm920t/built-in.o
                0x00000000000003ac                print_cpuinfo
 .text.get_FCLK
                0x0000000000000420       0x40 arch/arm/cpu/arm920t/built-in.o
                0x0000000000000420                get_FCLK
 .text.get_HCLK
                0x0000000000000460       0x20 arch/arm/cpu/arm920t/built-in.o
                0x0000000000000460                get_HCLK
 .text.get_PCLK
                0x0000000000000480       0x20 arch/arm/cpu/arm920t/built-in.o
                0x0000000000000480                get_PCLK
 .text.timer_init
                0x00000000000004a0       0x74 arch/arm/cpu/arm920t/built-in.o
                0x00000000000004a0                timer_init
 .text.get_ticks
                0x0000000000000514       0x50 arch/arm/cpu/arm920t/built-in.o
                0x0000000000000514                get_ticks
 .text.__udelay
                0x0000000000000564       0x4c arch/arm/cpu/arm920t/built-in.o
                0x0000000000000564                __udelay
 .text.get_timer_masked
                0x00000000000005b0       0x28 arch/arm/cpu/arm920t/built-in.o
                0x00000000000005b0                get_timer_masked
 .text.get_timer
                0x00000000000005d8       0x14 arch/arm/cpu/arm920t/built-in.o
                0x00000000000005d8                get_timer
 .text.get_tbclk
                0x00000000000005ec        0x8 arch/arm/cpu/arm920t/built-in.o
                0x00000000000005ec                get_tbclk
 .text.reset_cpu
                0x00000000000005f4       0x20 arch/arm/cpu/arm920t/built-in.o
                0x00000000000005f4                reset_cpu
 .text          0x0000000000000614       0x90 arch/arm/lib/built-in.o
                0x0000000000000614                _main
 .text.relocate_vectors
                0x00000000000006a4       0x90 arch/arm/lib/built-in.o
                0x00000000000006a4                relocate_vectors
                0x00000000000006cc                relocate_code
 .text.boot_jump_linux.isra.4
                0x0000000000000734       0xb0 arch/arm/lib/built-in.o
 .text.arch_lmb_reserve
                0x00000000000007e4       0x24 arch/arm/lib/built-in.o
                0x00000000000007e4                arch_lmb_reserve
 .text.setup_board_tags
                0x0000000000000808        0x4 arch/arm/lib/built-in.o
                0x0000000000000808                setup_board_tags
 .text.boot_prep_linux
                0x000000000000080c      0x194 arch/arm/lib/built-in.o
 .text.do_bootm_linux
                0x00000000000009a0       0x64 arch/arm/lib/built-in.o
                0x00000000000009a0                do_bootm_linux
 .text.boot_prep_vxworks
                0x0000000000000a04        0x4 arch/arm/lib/built-in.o
                0x0000000000000a04                boot_prep_vxworks
 .text.boot_jump_vxworks
                0x0000000000000a08        0xc arch/arm/lib/built-in.o
                0x0000000000000a08                boot_jump_vxworks
 .text.arch_reserve_stacks
                0x0000000000000a14       0x1c arch/arm/lib/built-in.o
                0x0000000000000a14                arch_reserve_stacks
 .text.interrupt_init
                0x0000000000000a30       0x1c arch/arm/lib/built-in.o
                0x0000000000000a30                interrupt_init
 .text.enable_interrupts
                0x0000000000000a4c        0x4 arch/arm/lib/built-in.o
                0x0000000000000a4c                enable_interrupts
 .text.disable_interrupts
                0x0000000000000a50        0x8 arch/arm/lib/built-in.o
                0x0000000000000a50                disable_interrupts
 .text.bad_mode
                0x0000000000000a58       0x10 arch/arm/lib/built-in.o
                0x0000000000000a58                bad_mode
 .text.show_regs
                0x0000000000000a68      0x174 arch/arm/lib/built-in.o
                0x0000000000000a68                show_regs
 .text.do_undefined_instruction
                0x0000000000000bdc       0x20 arch/arm/lib/built-in.o
                0x0000000000000bdc                do_undefined_instruction
 .text.do_software_interrupt
                0x0000000000000bfc       0x20 arch/arm/lib/built-in.o
                0x0000000000000bfc                do_software_interrupt
 .text.do_prefetch_abort
                0x0000000000000c1c       0x20 arch/arm/lib/built-in.o
                0x0000000000000c1c                do_prefetch_abort
 .text.do_data_abort
                0x0000000000000c3c       0x20 arch/arm/lib/built-in.o
                0x0000000000000c3c                do_data_abort
 .text.do_not_used
                0x0000000000000c5c       0x20 arch/arm/lib/built-in.o
                0x0000000000000c5c                do_not_used
 .text.do_fiq   0x0000000000000c7c       0x20 arch/arm/lib/built-in.o
                0x0000000000000c7c                do_fiq
 .text.do_irq   0x0000000000000c9c       0x20 arch/arm/lib/built-in.o
                0x0000000000000c9c                do_irq
 .text.reset_misc
                0x0000000000000cbc        0x4 arch/arm/lib/built-in.o
                0x0000000000000cbc                reset_misc
 .text.do_reset
                0x0000000000000cc0       0x34 arch/arm/lib/built-in.o
                0x0000000000000cc0                do_reset
 .text.enable_caches
                0x0000000000000cf4        0xc arch/arm/lib/built-in.o
                0x0000000000000cf4                enable_caches
 .text.flush_dcache_range
                0x0000000000000d00        0x4 arch/arm/lib/built-in.o
                0x0000000000000d00                flush_dcache_range
 .text.flush_cache
                0x0000000000000d04        0x8 arch/arm/lib/built-in.o
                0x0000000000000d04                flush_cache
 .text.flush_dcache_all
                0x0000000000000d0c        0xc arch/arm/lib/built-in.o
                0x0000000000000d0c                flush_dcache_all
 .text.cp_delay
                0x0000000000000d18       0x30 arch/arm/lib/built-in.o
 .text.arm_init_before_mmu
                0x0000000000000d48        0x4 arch/arm/lib/built-in.o
                0x0000000000000d48                arm_init_before_mmu
 .text.arm_init_domains
                0x0000000000000d4c        0x4 arch/arm/lib/built-in.o
                0x0000000000000d4c                arm_init_domains
 .text.set_section_dcache
                0x0000000000000d50       0x14 arch/arm/lib/built-in.o
                0x0000000000000d50                set_section_dcache
 .text.dram_bank_mmu_setup
                0x0000000000000d64       0x44 arch/arm/lib/built-in.o
                0x0000000000000d64                dram_bank_mmu_setup
 .text.icache_enable
                0x0000000000000da8       0x18 arch/arm/lib/built-in.o
                0x0000000000000da8                icache_enable
 .text.icache_disable
                0x0000000000000dc0       0x20 arch/arm/lib/built-in.o
                0x0000000000000dc0                icache_disable
 .text.icache_status
                0x0000000000000de0       0x10 arch/arm/lib/built-in.o
                0x0000000000000de0                icache_status
 .text.dcache_enable
                0x0000000000000df0       0x70 arch/arm/lib/built-in.o
                0x0000000000000df0                dcache_enable
 .text.dcache_disable
                0x0000000000000e60       0x2c arch/arm/lib/built-in.o
                0x0000000000000e60                dcache_disable
 .text.dcache_status
                0x0000000000000e8c       0x10 arch/arm/lib/built-in.o
                0x0000000000000e8c                dcache_status
 .text          0x0000000000000e9c       0x60 board/samsung/smdk2410/built-in.o
                0x0000000000000e9c                lowlevel_init
 .text.board_early_init_f
                0x0000000000000efc       0xc8 board/samsung/smdk2410/built-in.o
                0x0000000000000efc                board_early_init_f
 .text.board_init
                0x0000000000000fc4       0x30 board/samsung/smdk2410/built-in.o
                0x0000000000000fc4                board_init
 .text.dram_init
                0x0000000000000ff4       0x10 board/samsung/smdk2410/built-in.o
                0x0000000000000ff4                dram_init
 .text.board_eth_init
                0x0000000000001004       0x10 board/samsung/smdk2410/built-in.o
                0x0000000000001004                board_eth_init
 .text.board_flash_get_legacy
                0x0000000000001014       0x18 board/samsung/smdk2410/built-in.o
                0x0000000000001014                board_flash_get_legacy
 .text.do_go_exec
                0x000000000000102c       0x10 cmd/built-in.o
                0x000000000000102c                do_go_exec
 .text.do_go    0x000000000000103c       0x6c cmd/built-in.o
 .text.do_bootm
                0x00000000000010a8      0x110 cmd/built-in.o
                0x00000000000010a8                do_bootm
 .text.do_bootd
                0x00000000000011b8       0x20 cmd/built-in.o
                0x00000000000011b8                do_bootd
 .text.do_imls  0x00000000000011d8       0xb8 cmd/built-in.o
 .text.image_info
                0x0000000000001290       0xe4 cmd/built-in.o
 .text.do_iminfo
                0x0000000000001374       0x58 cmd/built-in.o
 .text.bootm_maybe_autostart
                0x00000000000013cc       0x78 cmd/built-in.o
                0x00000000000013cc                bootm_maybe_autostart
 .text.do_help  0x0000000000001444       0x44 cmd/built-in.o
 .text.do_version
                0x0000000000001488       0x38 cmd/built-in.o
 .text.source   0x00000000000014c0      0x100 cmd/built-in.o
                0x00000000000014c0                source
 .text.do_source
                0x00000000000015c0       0x44 cmd/built-in.o
 .text.print_num
                0x0000000000001604       0x14 cmd/built-in.o
 .text.do_bdinfo
                0x0000000000001618      0x180 cmd/built-in.o
 .text.parse_argv
                0x0000000000001798       0x60 cmd/built-in.o
 .text.invalidate_icache_all
                0x00000000000017f8        0xc cmd/built-in.o
                0x00000000000017f8                invalidate_icache_all
 .text.do_icache
                0x0000000000001804       0x88 cmd/built-in.o
 .text.do_dcache
                0x000000000000188c       0x88 cmd/built-in.o
 .text.do_coninfo
                0x0000000000001914       0xac cmd/built-in.o
 .text.cnvrt2   0x00000000000019c0       0x44 cmd/built-in.o
 .text.mk_date  0x0000000000001a04      0x1d4 cmd/built-in.o
                0x0000000000001a04                mk_date
 .text.do_date  0x0000000000001bd8      0x138 cmd/built-in.o
 .text.do_echo  0x0000000000001d10       0xa8 cmd/built-in.o
 .text.load_elf_image_shdr
                0x0000000000001db8       0x8c cmd/built-in.o
 .text.valid_elf_image
                0x0000000000001e44       0x4c cmd/built-in.o
                0x0000000000001e44                valid_elf_image
 .text.do_bootelf
                0x0000000000001e90      0x1a8 cmd/built-in.o
                0x0000000000001e90                do_bootelf
 .text.do_bootvx
                0x0000000000002038      0x348 cmd/built-in.o
                0x0000000000002038                do_bootvx
 .text.do_exit  0x0000000000002380       0x3c cmd/built-in.o
 .text.do_ext2load
                0x00000000000023bc       0x18 cmd/built-in.o
                0x00000000000023bc                do_ext2load
 .text.do_ext2ls
                0x00000000000023d4       0x18 cmd/built-in.o
 .text.do_fat_size
                0x00000000000023ec       0x18 cmd/built-in.o
                0x00000000000023ec                do_fat_size
 .text.do_fat_fsload
                0x0000000000002404       0x18 cmd/built-in.o
                0x0000000000002404                do_fat_fsload
 .text.do_fat_ls
                0x000000000000241c       0x18 cmd/built-in.o
 .text.do_fat_fsinfo
                0x0000000000002434       0x90 cmd/built-in.o
 .text.flash_fill_sect_ranges
                0x00000000000024c4      0x1b0 cmd/built-in.o
 .text.abbrev_spec
                0x0000000000002674      0x134 cmd/built-in.o
 .text.do_flinfo
                0x00000000000027a8       0x60 cmd/built-in.o
 .text.flash_sect_roundb
                0x0000000000002808       0xc8 cmd/built-in.o
                0x0000000000002808                flash_sect_roundb
 .text.addr_spec
                0x00000000000028d0       0xc0 cmd/built-in.o
 .text.flash_sect_erase
                0x0000000000002990       0xd8 cmd/built-in.o
                0x0000000000002990                flash_sect_erase
 .text.do_flerase
                0x0000000000002a68      0x258 cmd/built-in.o
 .text.flash_sect_protect
                0x0000000000002cc0       0xec cmd/built-in.o
                0x0000000000002cc0                flash_sect_protect
 .text.do_protect
                0x0000000000002dac      0x37c cmd/built-in.o
 .text.evalexp  0x0000000000003128       0x78 cmd/built-in.o
 .text.evalstr  0x00000000000031a0       0x68 cmd/built-in.o
 .text.binary_test
                0x0000000000003208      0x1c0 cmd/built-in.o
 .text.do_itest
                0x00000000000033c8       0x88 cmd/built-in.o
 .text.bin_data_init
                0x0000000000003450       0x2c cmd/built-in.o
 .text.k_data_save
                0x000000000000347c       0x4c cmd/built-in.o
 .text.k_data_restore
                0x00000000000034c8       0x4c cmd/built-in.o
 .text.getcxmodem
                0x0000000000003514       0x1c cmd/built-in.o
 .text.load_serial_ymodem
                0x0000000000003530      0x104 cmd/built-in.o
 .text.bin_data_char
                0x0000000000003634       0x2c cmd/built-in.o
 .text.chk1.constprop.1
                0x0000000000003660       0x2c cmd/built-in.o
 .text.s1_sendpacket.constprop.2
                0x000000000000368c       0x50 cmd/built-in.o
 .text.load_serial
                0x00000000000036dc      0x218 cmd/built-in.o
 .text.do_load_serial
                0x00000000000038f4       0xd8 cmd/built-in.o
 .text.do_load_serial_bin
                0x00000000000039cc      0x7ac cmd/built-in.o
 .text.do_mem_mw
                0x0000000000004178       0xbc cmd/built-in.o
 .text.do_mem_loop
                0x0000000000004234       0xec cmd/built-in.o
 .text.do_mem_md
                0x0000000000004320       0xe4 cmd/built-in.o
 .text.do_mem_cmp
                0x0000000000004404      0x168 cmd/built-in.o
 .text.do_mem_base
                0x000000000000456c       0x40 cmd/built-in.o
 .text.do_mem_cp
                0x00000000000045ac      0x134 cmd/built-in.o
 .text.do_mem_crc
                0x00000000000046e0       0x48 cmd/built-in.o
 .text.mod_mem.isra.0
                0x0000000000004728      0x18c cmd/built-in.o
 .text.do_mem_mm
                0x00000000000048b4        0x8 cmd/built-in.o
 .text.do_mem_nm
                0x00000000000048bc        0x8 cmd/built-in.o
 .text.do_sleep
                0x00000000000048c4       0x70 cmd/built-in.o
 .text.part_delall
                0x0000000000004934       0x44 cmd/built-in.o
 .text.memsize_parse
                0x0000000000004978       0x80 cmd/built-in.o
 .text.mtd_part_info
                0x00000000000049f8       0x98 cmd/built-in.o
 .text.memsize_format
                0x0000000000004a90       0x94 cmd/built-in.o
 .text.index_partitions
                0x0000000000004b24       0xb0 cmd/built-in.o
 .text.current_save
                0x0000000000004bd4       0xbc cmd/built-in.o
 .text.part_sort_add
                0x0000000000004c90      0x128 cmd/built-in.o
 .text.device_del
                0x0000000000004db8       0x7c cmd/built-in.o
 .text.generate_mtdparts_save.constprop.6
                0x0000000000004e34      0x304 cmd/built-in.o
 .text.device_delall.constprop.8
                0x0000000000005138       0x64 cmd/built-in.o
 .text.mtd_devices_init
                0x000000000000519c       0x2c cmd/built-in.o
 .text.get_mtd_info.constprop.9
                0x00000000000051c8       0x80 cmd/built-in.o
 .text.part_validate
                0x0000000000005248      0x3a8 cmd/built-in.o
 .text.device_find
                0x00000000000055f0       0x4c cmd/built-in.o
                0x00000000000055f0                device_find
 .text.device_parse
                0x000000000000563c      0x5c8 cmd/built-in.o
 .text.mtd_id_parse
                0x0000000000005c04      0x114 cmd/built-in.o
                0x0000000000005c04                mtd_id_parse
 .text.find_dev_and_part
                0x0000000000005d18      0x1b4 cmd/built-in.o
                0x0000000000005d18                find_dev_and_part
 .text.mtdparts_init
                0x0000000000005ecc      0x650 cmd/built-in.o
                0x0000000000005ecc                mtdparts_init
 .text.do_chpart
                0x000000000000651c       0xd4 cmd/built-in.o
 .text.do_mtdparts
                0x00000000000065f0      0x5dc cmd/built-in.o
 .text.set_dev  0x0000000000006bcc       0x70 cmd/built-in.o
 .text.nand_print_and_set_info
                0x0000000000006c3c       0xf4 cmd/built-in.o
 .text.do_nand  0x0000000000006d30      0xd94 cmd/built-in.o
 .text.nand_load_image
                0x0000000000007ac4      0x1e4 cmd/built-in.o
 .text.do_nandboot
                0x0000000000007ca8      0x238 cmd/built-in.o
 .text.netboot_common
                0x0000000000007ee0      0x288 cmd/built-in.o
 .text.do_bootp
                0x0000000000008168        0xc cmd/built-in.o
 .text.do_dhcp  0x0000000000008174        0xc cmd/built-in.o
 .text.do_nfs   0x0000000000008180        0xc cmd/built-in.o
 .text.do_tftpb
                0x000000000000818c       0x40 cmd/built-in.o
                0x000000000000818c                do_tftpb
 .text.do_ping  0x00000000000081cc       0x78 cmd/built-in.o
 .text.do_reginfo
                0x0000000000008244        0x8 cmd/built-in.o
 .text.do_false
                0x000000000000824c        0x8 cmd/built-in.o
 .text.do_true  0x0000000000008254        0x8 cmd/built-in.o
 .text.do_test  0x000000000000825c      0x33c cmd/built-in.o
 .text.ubi_find_volume
                0x0000000000008598       0x70 cmd/built-in.o
 .text.ubi_volume_continue_write
                0x0000000000008608       0xa0 cmd/built-in.o
 .text.ubi_volume_begin_write
                0x00000000000086a8       0xa0 cmd/built-in.o
                0x00000000000086a8                ubi_volume_begin_write
 .text.ubi_volume_write
                0x0000000000008748        0x8 cmd/built-in.o
                0x0000000000008748                ubi_volume_write
 .text.ubi_volume_read
                0x0000000000008750      0x1d4 cmd/built-in.o
                0x0000000000008750                ubi_volume_read
 .text.ubi_part
                0x0000000000008924      0x258 cmd/built-in.o
                0x0000000000008924                ubi_part
 .text.do_ubi   0x0000000000008b7c      0x858 cmd/built-in.o
 .text.do_ubifs_mount
                0x00000000000093d4       0x64 cmd/built-in.o
 .text.do_ubifs_ls
                0x0000000000009438       0x64 cmd/built-in.o
 .text.do_ubifs_load
                0x000000000000949c       0xc8 cmd/built-in.o
 .text.ubifs_is_mounted
                0x0000000000009564       0x10 cmd/built-in.o
                0x0000000000009564                ubifs_is_mounted
 .text.cmd_ubifs_umount
                0x0000000000009574       0x28 cmd/built-in.o
                0x0000000000009574                cmd_ubifs_umount
 .text.do_ubifs_umount
                0x000000000000959c       0x48 cmd/built-in.o
 .text.usb_get_class_desc
                0x00000000000095e4       0xbc cmd/built-in.o
 .text.usb_find_device
                0x00000000000096a0       0x3c cmd/built-in.o
 .text.usb_show_tree_graph
                0x00000000000096dc      0x224 cmd/built-in.o
 .text.usb_display_class_sub
                0x0000000000009900      0x170 cmd/built-in.o
 .text.usb_display_string
                0x0000000000009a70       0x40 cmd/built-in.o
 .text.usb_display_config
                0x0000000000009ab0      0x208 cmd/built-in.o
 .text.do_usbboot
                0x0000000000009cb8        0xc cmd/built-in.o
 .text.usb_display_desc.part.0
                0x0000000000009cc4      0x128 cmd/built-in.o
 .text.do_usb_start
                0x0000000000009dec       0x34 cmd/built-in.o
 .text.usb_show_tree
                0x0000000000009e20       0x54 cmd/built-in.o
                0x0000000000009e20                usb_show_tree
 .text.do_usb   0x0000000000009e74      0x768 cmd/built-in.o
 .text.do_imgextract
                0x000000000000a5dc      0x310 cmd/built-in.o
 .text.do_ydevls
                0x000000000000a8ec       0x10 cmd/built-in.o
                0x000000000000a8ec                do_ydevls
 .text.do_ydevconfig
                0x000000000000a8fc       0x7c cmd/built-in.o
                0x000000000000a8fc                do_ydevconfig
 .text.do_ymount
                0x000000000000a978       0x44 cmd/built-in.o
                0x000000000000a978                do_ymount
 .text.do_yumount
                0x000000000000a9bc       0x44 cmd/built-in.o
                0x000000000000a9bc                do_yumount
 .text.do_yls   0x000000000000aa00       0x6c cmd/built-in.o
                0x000000000000aa00                do_yls
 .text.do_yrd   0x000000000000aa6c       0x50 cmd/built-in.o
                0x000000000000aa6c                do_yrd
 .text.do_ywr   0x000000000000aabc       0x8c cmd/built-in.o
                0x000000000000aabc                do_ywr
 .text.do_yrdm  0x000000000000ab48       0x48 cmd/built-in.o
                0x000000000000ab48                do_yrdm
 .text.do_ywrm  0x000000000000ab90       0x64 cmd/built-in.o
                0x000000000000ab90                do_ywrm
 .text.do_ymkdir
                0x000000000000abf4       0x30 cmd/built-in.o
                0x000000000000abf4                do_ymkdir
 .text.do_yrmdir
                0x000000000000ac24       0x30 cmd/built-in.o
                0x000000000000ac24                do_yrmdir
 .text.do_yrm   0x000000000000ac54       0x30 cmd/built-in.o
                0x000000000000ac54                do_yrm
 .text.do_ymv   0x000000000000ac84       0x34 cmd/built-in.o
                0x000000000000ac84                do_ymv
 .text.do_ytrace
                0x000000000000acb8       0x38 cmd/built-in.o
                0x000000000000acb8                do_ytrace
 .text.do_env_delete
                0x000000000000acf0       0x9c cmd/built-in.o
 .text.do_env_exists
                0x000000000000ad8c       0x64 cmd/built-in.o
 .text.do_env_save
                0x000000000000adf0       0x2c cmd/built-in.o
 .text.do_env   0x000000000000ae1c       0x68 cmd/built-in.o
 .text.env_print
                0x000000000000ae84       0xc0 cmd/built-in.o
 .text.do_env_print
                0x000000000000af44       0xc8 cmd/built-in.o
 .text.do_env_import
                0x000000000000b00c      0x284 cmd/built-in.o
 .text.do_env_default
                0x000000000000b290       0xa8 cmd/built-in.o
 .text._do_env_set.isra.0
                0x000000000000b338      0x1bc cmd/built-in.o
 .text.do_env_set
                0x000000000000b4f4       0x1c cmd/built-in.o
 .text.get_env_id
                0x000000000000b510       0x10 cmd/built-in.o
                0x000000000000b510                get_env_id
 .text.setenv   0x000000000000b520       0x60 cmd/built-in.o
                0x000000000000b520                setenv
 .text.setenv_ulong
                0x000000000000b580       0x20 cmd/built-in.o
                0x000000000000b580                setenv_ulong
 .text.setenv_hex
                0x000000000000b5a0       0x34 cmd/built-in.o
                0x000000000000b5a0                setenv_hex
 .text.do_env_export
                0x000000000000b5d4      0x260 cmd/built-in.o
 .text.envmatch
                0x000000000000b834       0x6c cmd/built-in.o
                0x000000000000b834                envmatch
 .text.getenv_f
                0x000000000000b8a0       0xc8 cmd/built-in.o
                0x000000000000b8a0                getenv_f
 .text.getenv   0x000000000000b968       0x78 cmd/built-in.o
                0x000000000000b968                getenv
 .text.getenv_ulong
                0x000000000000b9e0       0x2c cmd/built-in.o
                0x000000000000b9e0                getenv_ulong
 .text.do_env_edit.part.2
                0x000000000000ba0c       0xa0 cmd/built-in.o
 .text.do_env_edit
                0x000000000000baac       0x2c cmd/built-in.o
 .text.common_diskboot
                0x000000000000bad8      0x24c cmd/built-in.o
                0x000000000000bad8                common_diskboot
 .text.board_init_f_alloc_reserve
                0x000000000000bd24        0xc common/built-in.o
                0x000000000000bd24                board_init_f_alloc_reserve
 .text.board_init_f_init_reserve
                0x000000000000bd30        0xc common/built-in.o
                0x000000000000bd30                board_init_f_init_reserve
 .text.show_boot_progress
                0x000000000000bd3c        0x4 common/built-in.o
                0x000000000000bd3c                show_boot_progress
 .text.main_loop
                0x000000000000bd40       0x28 common/built-in.o
                0x000000000000bd40                main_loop
 .text.dummy    0x000000000000bd68        0x4 common/built-in.o
 .text.get_version
                0x000000000000bd6c        0x8 common/built-in.o
                0x000000000000bd6c                get_version
 .text.jumptable_init
                0x000000000000bd74      0x1d0 common/built-in.o
                0x000000000000bd74                jumptable_init
 .text.hash_command
                0x000000000000bf44       0xb4 common/built-in.o
                0x000000000000bf44                hash_command
 .text.b_reset  0x000000000000bff8       0x1c common/built-in.o
 .text.static_get
                0x000000000000c014       0x1c common/built-in.o
 .text.file_peek
                0x000000000000c030        0xc common/built-in.o
 .text.mapset   0x000000000000c03c       0x20 common/built-in.o
 .text.syntax_err
                0x000000000000c05c        0xc common/built-in.o
 .text.free_pipe_list
                0x000000000000c068       0xf4 common/built-in.o
 .text.xmalloc  0x000000000000c15c       0x20 common/built-in.o
 .text.new_pipe
                0x000000000000c17c       0x28 common/built-in.o
 .text.xrealloc
                0x000000000000c1a4       0x20 common/built-in.o
 .text.done_command
                0x000000000000c1c4       0x8c common/built-in.o
 .text.done_pipe
                0x000000000000c250       0x48 common/built-in.o
 .text.done_word
                0x000000000000c298      0x2e4 common/built-in.o
 .text.do_showvar
                0x000000000000c57c       0xf4 common/built-in.o
 .text.is_assignment
                0x000000000000c670       0x5c common/built-in.o
 .text.file_get
                0x000000000000c6cc      0x220 common/built-in.o
 .text.b_addchr
                0x000000000000c8ec       0x80 common/built-in.o
 .text.b_addqchr
                0x000000000000c96c       0x50 common/built-in.o
 .text.static_peek
                0x000000000000c9bc        0xc common/built-in.o
 .text.get_local_var
                0x000000000000c9c8       0xa0 common/built-in.o
                0x000000000000c9c8                get_local_var
 .text.set_local_var
                0x000000000000ca68      0x1bc common/built-in.o
                0x000000000000ca68                set_local_var
 .text.insert_var_value_sub
                0x000000000000cc24      0x2bc common/built-in.o
 .text.parse_string_outer
                0x000000000000cee0       0xe4 common/built-in.o
                0x000000000000cee0                parse_string_outer
 .text.run_list_real
                0x000000000000cfc4      0x7a4 common/built-in.o
 .text.parse_stream_outer
                0x000000000000d768      0x6c4 common/built-in.o
 .text.parse_file_outer
                0x000000000000de2c       0x44 common/built-in.o
                0x000000000000de2c                parse_file_outer
 .text.u_boot_hush_start
                0x000000000000de70       0x54 common/built-in.o
                0x000000000000de70                u_boot_hush_start
 .text.bootdelay_process
                0x000000000000dec4       0x54 common/built-in.o
                0x000000000000dec4                bootdelay_process
 .text.autoboot_command
                0x000000000000df18      0x110 common/built-in.o
                0x000000000000df18                autoboot_command
 .text.bootretry_init_cmd_timeout
                0x000000000000e028       0x40 common/built-in.o
                0x000000000000e028                bootretry_init_cmd_timeout
 .text.bootretry_reset_cmd_timeout
                0x000000000000e068       0x48 common/built-in.o
                0x000000000000e068                bootretry_reset_cmd_timeout
 .text.bootretry_tstc_timeout
                0x000000000000e0b0       0x50 common/built-in.o
                0x000000000000e0b0                bootretry_tstc_timeout
 .text.setup_mon_len
                0x000000000000e100       0x20 common/built-in.o
 .text.reserve_round_4k
                0x000000000000e120       0x18 common/built-in.o
 .text.reserve_mmu
                0x000000000000e138       0x38 common/built-in.o
 .text.reserve_uboot
                0x000000000000e170       0x30 common/built-in.o
 .text.reserve_malloc
                0x000000000000e1a0       0x14 common/built-in.o
 .text.reserve_global_data
                0x000000000000e1b4       0x1c common/built-in.o
 .text.reserve_fdt
                0x000000000000e1d0       0x60 common/built-in.o
 .text.initf_dm
                0x000000000000e230        0x8 common/built-in.o
 .text.arch_cpu_init_dm
                0x000000000000e238        0x8 common/built-in.o
                0x000000000000e238                arch_cpu_init_dm
 .text.announce_dram_init
                0x000000000000e240       0x18 common/built-in.o
 .text.init_baud_rate
                0x000000000000e258       0x2c common/built-in.o
 .text.mark_bootstage
                0x000000000000e284       0x14 common/built-in.o
 .text.setup_reloc
                0x000000000000e298       0x38 common/built-in.o
 .text.reloc_fdt
                0x000000000000e2d0       0x44 common/built-in.o
 .text.reserve_board
                0x000000000000e314       0x40 common/built-in.o
 .text.reserve_arch
                0x000000000000e354        0x8 common/built-in.o
                0x000000000000e354                reserve_arch
 .text.display_text_info
                0x000000000000e35c        0x8 common/built-in.o
 .text.arch_cpu_init
                0x000000000000e364        0x8 common/built-in.o
                0x000000000000e364                arch_cpu_init
 .text.reserve_trace
                0x000000000000e36c        0x8 common/built-in.o
 .text.setup_machine
                0x000000000000e374        0x8 common/built-in.o
 .text.display_new_sp
                0x000000000000e37c        0x8 common/built-in.o
 .text.initf_console_record
                0x000000000000e384        0x8 common/built-in.o
 .text.coloured_LED_init
                0x000000000000e38c        0x4 common/built-in.o
                0x000000000000e38c                coloured_LED_init
 .text.red_led_on
                0x000000000000e390        0x4 common/built-in.o
                0x000000000000e390                red_led_on
 .text.board_add_ram_info
                0x000000000000e394        0x4 common/built-in.o
                0x000000000000e394                board_add_ram_info
 .text.show_dram_config
                0x000000000000e398       0x34 common/built-in.o
 .text.dram_init_banksize
                0x000000000000e3cc       0x20 common/built-in.o
                0x000000000000e3cc                dram_init_banksize
 .text.setup_dram_config
                0x000000000000e3ec       0x10 common/built-in.o
 .text.board_get_usable_ram_top
                0x000000000000e3fc       0x14 common/built-in.o
                0x000000000000e3fc                board_get_usable_ram_top
 .text.board_reserve_ram_top
                0x000000000000e410        0x4 common/built-in.o
                0x000000000000e410                board_reserve_ram_top
 .text.setup_dest_addr
                0x000000000000e414       0x4c common/built-in.o
 .text.reserve_stacks
                0x000000000000e460       0x1c common/built-in.o
 .text.board_init_f
                0x000000000000e47c       0x28 common/built-in.o
                0x000000000000e47c                board_init_f
 .text.bootstage_relocate
                0x000000000000e4a4        0x8 common/built-in.o
 .text.initr_reloc
                0x000000000000e4ac       0x18 common/built-in.o
 .text.initr_reloc_global_data
                0x000000000000e4c4       0x28 common/built-in.o
 .text.power_init_board
                0x000000000000e4ec        0x8 common/built-in.o
                0x000000000000e4ec                power_init_board
 .text.initr_announce
                0x000000000000e4f4        0x8 common/built-in.o
 .text.run_main_loop
                0x000000000000e4fc        0xc common/built-in.o
 .text.initr_net
                0x000000000000e508       0x1c common/built-in.o
 .text.initr_ethaddr
                0x000000000000e524       0x20 common/built-in.o
 .text.initr_enable_interrupts
                0x000000000000e544       0x10 common/built-in.o
 .text.initr_jumptable
                0x000000000000e554       0x10 common/built-in.o
 .text.initr_env
                0x000000000000e564       0x30 common/built-in.o
 .text.initr_nand
                0x000000000000e594       0x1c common/built-in.o
 .text.initr_serial
                0x000000000000e5b0       0x10 common/built-in.o
 .text.initr_bootstage
                0x000000000000e5c0       0x14 common/built-in.o
 .text.initr_malloc
                0x000000000000e5d4       0x1c common/built-in.o
 .text.initr_caches
                0x000000000000e5f0       0x10 common/built-in.o
 .text.initr_console_record
                0x000000000000e600        0x8 common/built-in.o
 .text.initr_trace
                0x000000000000e608        0x8 common/built-in.o
 .text.initr_barrier
                0x000000000000e610        0x8 common/built-in.o
 .text.board_flash_wp_on
                0x000000000000e618        0x8 common/built-in.o
                0x000000000000e618                board_flash_wp_on
 .text.initr_flash
                0x000000000000e620       0x78 common/built-in.o
 .text.cpu_secondary_init_r
                0x000000000000e698        0x4 common/built-in.o
                0x000000000000e698                cpu_secondary_init_r
 .text.initr_secondary_cpu
                0x000000000000e69c       0x10 common/built-in.o
 .text.board_init_r
                0x000000000000e6ac       0x14 common/built-in.o
                0x000000000000e6ac                board_init_r
 .text.bootm_find_images
                0x000000000000e6c0       0x50 common/built-in.o
                0x000000000000e6c0                bootm_find_images
 .text.bootm_decomp_image
                0x000000000000e710      0x1cc common/built-in.o
                0x000000000000e710                bootm_decomp_image
 .text.bootm_disable_interrupts
                0x000000000000e8dc       0x18 common/built-in.o
                0x000000000000e8dc                bootm_disable_interrupts
 .text.do_bootm_states
                0x000000000000e8f4      0x790 common/built-in.o
                0x000000000000e8f4                do_bootm_states
 .text.copy_args
                0x000000000000f084       0x50 common/built-in.o
 .text.do_bootm_rtems
                0x000000000000f0d4       0x44 common/built-in.o
 .text.do_bootm_plan9
                0x000000000000f118       0xa4 common/built-in.o
 .text.do_bootm_standalone
                0x000000000000f1bc       0x64 common/built-in.o
 .text.do_bootm_qnxelf
                0x000000000000f220       0x5c common/built-in.o
 .text.do_bootm_netbsd
                0x000000000000f27c       0xfc common/built-in.o
 .text.do_bootvx_fdt
                0x000000000000f378       0x3c common/built-in.o
                0x000000000000f378                do_bootvx_fdt
 .text.do_bootm_vxworks
                0x000000000000f3b4       0x24 common/built-in.o
 .text.arch_preboot_os
                0x000000000000f3d8        0x4 common/built-in.o
                0x000000000000f3d8                arch_preboot_os
 .text.boot_selected_os
                0x000000000000f3dc       0x58 common/built-in.o
                0x000000000000f3dc                boot_selected_os
 .text.bootm_os_get_boot_func
                0x000000000000f434       0x10 common/built-in.o
                0x000000000000f434                bootm_os_get_boot_func
 .text.regex_callback
                0x000000000000f444      0x134 common/built-in.o
 .text.env_attr_walk
                0x000000000000f578      0x128 common/built-in.o
                0x000000000000f578                env_attr_walk
 .text.env_attr_lookup
                0x000000000000f6a0       0x84 common/built-in.o
                0x000000000000f6a0                env_attr_lookup
 .text.clear_callback
                0x000000000000f724       0x10 common/built-in.o
 .text.find_env_callback
                0x000000000000f734       0x64 common/built-in.o
 .text.on_callbacks
                0x000000000000f798       0x50 common/built-in.o
 .text.set_callback
                0x000000000000f7e8       0x98 common/built-in.o
 .text.env_callback_init
                0x000000000000f880       0xc4 common/built-in.o
                0x000000000000f880                env_callback_init
 .text.skip_num
                0x000000000000f944       0x78 common/built-in.o
 .text.clear_flags
                0x000000000000f9bc       0x10 common/built-in.o
 .text.on_flags
                0x000000000000f9cc       0x50 common/built-in.o
 .text.env_flags_parse_vartype
                0x000000000000fa1c       0x50 common/built-in.o
                0x000000000000fa1c                env_flags_parse_vartype
 .text.env_flags_parse_varaccess
                0x000000000000fa6c       0x58 common/built-in.o
                0x000000000000fa6c                env_flags_parse_varaccess
 .text.set_flags
                0x000000000000fac4       0xb0 common/built-in.o
 .text.eth_validate_ethaddr_str
                0x000000000000fb74       0x94 common/built-in.o
                0x000000000000fb74                eth_validate_ethaddr_str
 .text.env_flags_init
                0x000000000000fc08       0xd8 common/built-in.o
                0x000000000000fc08                env_flags_init
 .text.env_flags_validate
                0x000000000000fce0      0x2ac common/built-in.o
                0x000000000000fce0                env_flags_validate
 .text.env_init
                0x000000000000ff8c       0x64 common/built-in.o
                0x000000000000ff8c                env_init
 .text.saveenv  0x000000000000fff0       0xac common/built-in.o
                0x000000000000fff0                saveenv
 .text.env_relocate_spec
                0x000000000001009c        0xc common/built-in.o
                0x000000000001009c                env_relocate_spec
 .text.usb_set_maxpacket_ep
                0x00000000000100a8       0x74 common/built-in.o
 .text.usb_stop
                0x000000000001011c       0x60 common/built-in.o
                0x000000000001011c                usb_stop
 .text.usb_disable_asynch
                0x000000000001017c       0x20 common/built-in.o
                0x000000000001017c                usb_disable_asynch
 .text.usb_submit_int_msg
                0x000000000001019c        0x4 common/built-in.o
                0x000000000001019c                usb_submit_int_msg
 .text.usb_control_msg
                0x00000000000101a0       0xc0 common/built-in.o
                0x00000000000101a0                usb_control_msg
 .text.usb_get_descriptor
                0x0000000000010260       0x64 common/built-in.o
 .text.get_descriptor_len
                0x00000000000102c4       0x90 common/built-in.o
 .text.usb_get_string
                0x0000000000010354       0x6c common/built-in.o
 .text.usb_string_sub
                0x00000000000103c0      0x110 common/built-in.o
 .text.usb_bulk_msg
                0x00000000000104d0       0x70 common/built-in.o
                0x00000000000104d0                usb_bulk_msg
 .text.usb_maxpacket
                0x0000000000010540       0x1c common/built-in.o
                0x0000000000010540                usb_maxpacket
 .text.usb_clear_halt
                0x000000000001055c       0x98 common/built-in.o
                0x000000000001055c                usb_clear_halt
 .text.usb_get_configuration_len
                0x00000000000105f4       0x74 common/built-in.o
                0x00000000000105f4                usb_get_configuration_len
 .text.usb_get_configuration_no
                0x0000000000010668       0x30 common/built-in.o
                0x0000000000010668                usb_get_configuration_no
 .text.usb_set_interface
                0x0000000000010698       0xc8 common/built-in.o
                0x0000000000010698                usb_set_interface
 .text.usb_set_protocol
                0x0000000000010760       0x54 common/built-in.o
                0x0000000000010760                usb_set_protocol
 .text.usb_set_idle
                0x00000000000107b4       0x5c common/built-in.o
                0x00000000000107b4                usb_set_idle
 .text.usb_string
                0x0000000000010810      0x114 common/built-in.o
                0x0000000000010810                usb_string
 .text.usb_get_dev_index
                0x0000000000010924       0x24 common/built-in.o
                0x0000000000010924                usb_get_dev_index
 .text.usb_alloc_new_device
                0x0000000000010948       0x9c common/built-in.o
                0x0000000000010948                usb_alloc_new_device
 .text.usb_free_device
                0x00000000000109e4       0x48 common/built-in.o
                0x00000000000109e4                usb_free_device
 .text.usb_alloc_device
                0x0000000000010a2c        0x8 common/built-in.o
                0x0000000000010a2c                usb_alloc_device
 .text.usb_select_config
                0x0000000000010a34      0x464 common/built-in.o
                0x0000000000010a34                usb_select_config
 .text.usb_setup_device
                0x0000000000010e98      0x174 common/built-in.o
                0x0000000000010e98                usb_setup_device
 .text.usb_new_device
                0x000000000001100c       0x34 common/built-in.o
                0x000000000001100c                usb_new_device
 .text.usb_init
                0x0000000000011040      0x148 common/built-in.o
                0x0000000000011040                usb_init
 .text.usb_device_has_child_on_port
                0x0000000000011188       0x14 common/built-in.o
                0x0000000000011188                usb_device_has_child_on_port
 .text.usb_set_port_feature
                0x000000000001119c       0x54 common/built-in.o
 .text.usb_clear_port_feature
                0x00000000000111f0       0x54 common/built-in.o
 .text.usb_get_hub_descriptor
                0x0000000000011244       0x50 common/built-in.o
 .text.usb_hub_reset_devices
                0x0000000000011294        0x4 common/built-in.o
                0x0000000000011294                usb_hub_reset_devices
 .text.usb_get_port_status
                0x0000000000011298       0x50 common/built-in.o
                0x0000000000011298                usb_get_port_status
 .text.usb_hub_reset
                0x00000000000112e8       0x20 common/built-in.o
                0x00000000000112e8                usb_hub_reset
 .text.legacy_hub_port_reset
                0x0000000000011308       0x9c common/built-in.o
                0x0000000000011308                legacy_hub_port_reset
 .text.usb_hub_port_connect_change
                0x00000000000113a4      0x15c common/built-in.o
                0x00000000000113a4                usb_hub_port_connect_change
 .text.usb_hub_configure
                0x0000000000011500      0x4b4 common/built-in.o
 .text.usb_hub_probe
                0x00000000000119b4       0x54 common/built-in.o
                0x00000000000119b4                usb_hub_probe
 .text.usb_stor_irq
                0x0000000000011a08       0x1c common/built-in.o
 .text.usb_stor_BBB_reset
                0x0000000000011a24       0xd0 common/built-in.o
 .text.usb_stor_CB_reset
                0x0000000000011af4       0xd4 common/built-in.o
 .text.usb_stor_BBB_clear_endpt_stall.isra.2
                0x0000000000011bc8       0x40 common/built-in.o
 .text.usb_stor_BBB_transport
                0x0000000000011c08      0x260 common/built-in.o
 .text.usb_stor_CB_comdat
                0x0000000000011e68      0x200 common/built-in.o
 .text.usb_stor_CBI_get_status.isra.4
                0x0000000000012068       0xc8 common/built-in.o
 .text.usb_stor_CB_transport
                0x0000000000012130      0x230 common/built-in.o
 .text.usb_request_sense.constprop.10
                0x0000000000012360       0x70 common/built-in.o
 .text.usb_stor_read
                0x00000000000123d0      0x178 common/built-in.o
 .text.usb_stor_write
                0x0000000000012548      0x178 common/built-in.o
 .text.usb_stor_get_dev
                0x00000000000126c0       0x28 common/built-in.o
                0x00000000000126c0                usb_stor_get_dev
 .text.usb_stor_info
                0x00000000000126e8       0x74 common/built-in.o
                0x00000000000126e8                usb_stor_info
 .text.usb_storage_probe
                0x000000000001275c      0x204 common/built-in.o
                0x000000000001275c                usb_storage_probe
 .text.usb_stor_get_info
                0x0000000000012960      0x33c common/built-in.o
                0x0000000000012960                usb_stor_get_info
 .text.usb_stor_scan
                0x0000000000012c9c      0x1f8 common/built-in.o
                0x0000000000012c9c                usb_stor_scan
 .text.flash_protect
                0x0000000000012e94       0xec common/built-in.o
                0x0000000000012e94                flash_protect
 .text.addr2info
                0x0000000000012f80       0x4c common/built-in.o
                0x0000000000012f80                addr2info
 .text.flash_write
                0x0000000000012fcc      0x14c common/built-in.o
                0x0000000000012fcc                flash_write
 .text.flash_perror
                0x0000000000013118       0xe8 common/built-in.o
                0x0000000000013118                flash_perror
 .text.usb_kbd_testc
                0x0000000000013200       0x6c common/built-in.o
 .text.usb_kbd_getc
                0x000000000001326c       0x48 common/built-in.o
 .text.usb_kbd_translate.part.0
                0x00000000000132b4      0x138 common/built-in.o
 .text.usb_kbd_irq
                0x00000000000133ec      0x1c8 common/built-in.o
 .text.drv_usb_kbd_init
                0x00000000000135b4      0x23c common/built-in.o
                0x00000000000135b4                drv_usb_kbd_init
 .text.usb_kbd_deregister
                0x00000000000137f0        0x8 common/built-in.o
                0x00000000000137f0                usb_kbd_deregister
 .text.env_get_char_spec
                0x00000000000137f8        0xc common/built-in.o
                0x00000000000137f8                env_get_char_spec
 .text.env_get_addr
                0x0000000000013804       0x20 common/built-in.o
                0x0000000000013804                env_get_addr
 .text.env_get_char_memory
                0x0000000000013824       0x10 common/built-in.o
                0x0000000000013824                env_get_char_memory
 .text.env_get_char
                0x0000000000013834       0x28 common/built-in.o
                0x0000000000013834                env_get_char
 .text.getenv_yesno
                0x000000000001385c       0x40 common/built-in.o
                0x000000000001385c                getenv_yesno
 .text.getenv_default
                0x000000000001389c       0x30 common/built-in.o
                0x000000000001389c                getenv_default
 .text.set_default_env
                0x00000000000138cc       0xc0 common/built-in.o
                0x00000000000138cc                set_default_env
 .text.set_default_vars
                0x000000000001398c       0x38 common/built-in.o
                0x000000000001398c                set_default_vars
 .text.env_import
                0x00000000000139c4       0xe0 common/built-in.o
                0x00000000000139c4                env_import
 .text.env_export
                0x0000000000013aa4       0xa4 common/built-in.o
                0x0000000000013aa4                env_export
 .text.env_relocate
                0x0000000000013b48       0x2c common/built-in.o
                0x0000000000013b48                env_relocate
 .text.console_setfile
                0x0000000000013b74       0xc4 common/built-in.o
 .text.putc     0x0000000000013c38       0x30 common/built-in.o
                0x0000000000013c38                putc
 .text.puts     0x0000000000013c68       0x30 common/built-in.o
                0x0000000000013c68                puts
 .text.fgetc    0x0000000000013c98       0x20 common/built-in.o
                0x0000000000013c98                fgetc
 .text.getc     0x0000000000013cb8       0x20 common/built-in.o
                0x0000000000013cb8                getc
 .text.ftstc    0x0000000000013cd8       0x20 common/built-in.o
                0x0000000000013cd8                ftstc
 .text.tstc     0x0000000000013cf8       0x20 common/built-in.o
                0x0000000000013cf8                tstc
 .text.ctrlc    0x0000000000013d18       0x58 common/built-in.o
                0x0000000000013d18                ctrlc
 .text.confirm_yesno
                0x0000000000013d70       0xd4 common/built-in.o
                0x0000000000013d70                confirm_yesno
 .text.had_ctrlc
                0x0000000000013e44       0x10 common/built-in.o
                0x0000000000013e44                had_ctrlc
 .text.clear_ctrlc
                0x0000000000013e54       0x14 common/built-in.o
                0x0000000000013e54                clear_ctrlc
 .text.search_device
                0x0000000000013e68       0x28 common/built-in.o
                0x0000000000013e68                search_device
 .text.console_assign
                0x0000000000013e90       0x44 common/built-in.o
                0x0000000000013e90                console_assign
 .text.on_console
                0x0000000000013ed4       0xb4 common/built-in.o
 .text.console_init_f
                0x0000000000013f88       0x10 common/built-in.o
                0x0000000000013f88                console_init_f
 .text.stdio_print_current_devices
                0x0000000000013f98       0xac common/built-in.o
                0x0000000000013f98                stdio_print_current_devices
 .text.console_init_r
                0x0000000000014044       0xd4 common/built-in.o
                0x0000000000014044                console_init_r
 .text.sbrk     0x0000000000014118       0x68 common/built-in.o
                0x0000000000014118                sbrk
 .text.mem_malloc_init
                0x0000000000014180       0x34 common/built-in.o
                0x0000000000014180                mem_malloc_init
 .text.malloc_trim
                0x00000000000141b4       0xcc common/built-in.o
                0x00000000000141b4                malloc_trim
 .text.free     0x0000000000014280      0x238 common/built-in.o
                0x0000000000014280                free
 .text.malloc   0x00000000000144b8      0x614 common/built-in.o
                0x00000000000144b8                malloc
 .text.calloc   0x0000000000014acc       0xd0 common/built-in.o
                0x0000000000014acc                calloc
 .text.realloc  0x0000000000014b9c      0x4c8 common/built-in.o
                0x0000000000014b9c                realloc
 .text.memalign
                0x0000000000015064      0x13c common/built-in.o
                0x0000000000015064                memalign
 .text.initf_malloc
                0x00000000000151a0        0x8 common/built-in.o
                0x00000000000151a0                initf_malloc
 .text.on_loadaddr
                0x00000000000151a8       0x38 common/built-in.o
 .text.image_check_hcrc
                0x00000000000151e0       0x60 common/built-in.o
                0x00000000000151e0                image_check_hcrc
 .text.image_check_dcrc
                0x0000000000015240       0x60 common/built-in.o
                0x0000000000015240                image_check_dcrc
 .text.image_multi_count
                0x00000000000152a0       0x1c common/built-in.o
                0x00000000000152a0                image_multi_count
 .text.image_multi_getimg
                0x00000000000152bc       0xa8 common/built-in.o
                0x00000000000152bc                image_multi_getimg
 .text.getenv_bootm_low
                0x0000000000015364       0x2c common/built-in.o
                0x0000000000015364                getenv_bootm_low
 .text.getenv_bootm_size
                0x0000000000015390       0x64 common/built-in.o
                0x0000000000015390                getenv_bootm_size
 .text.getenv_bootm_mapsize
                0x00000000000153f4       0x30 common/built-in.o
                0x00000000000153f4                getenv_bootm_mapsize
 .text.memmove_wd
                0x0000000000015424        0xc common/built-in.o
                0x0000000000015424                memmove_wd
 .text.genimg_print_size
                0x0000000000015430       0x30 common/built-in.o
                0x0000000000015430                genimg_print_size
 .text.genimg_print_time
                0x0000000000015460       0x48 common/built-in.o
                0x0000000000015460                genimg_print_time
 .text.get_table_entry
                0x00000000000154a8       0x24 common/built-in.o
                0x00000000000154a8                get_table_entry
 .text.get_table_entry_name
                0x00000000000154cc       0x20 common/built-in.o
                0x00000000000154cc                get_table_entry_name
 .text.genimg_get_os_name
                0x00000000000154ec       0x18 common/built-in.o
                0x00000000000154ec                genimg_get_os_name
 .text.genimg_get_arch_name
                0x0000000000015504       0x18 common/built-in.o
                0x0000000000015504                genimg_get_arch_name
 .text.genimg_get_type_name
                0x000000000001551c       0x18 common/built-in.o
                0x000000000001551c                genimg_get_type_name
 .text.genimg_get_comp_name
                0x0000000000015534       0x18 common/built-in.o
                0x0000000000015534                genimg_get_comp_name
 .text.image_print_contents
                0x000000000001554c      0x1e0 common/built-in.o
                0x000000000001554c                image_print_contents
 .text.genimg_get_kernel_addr_fit
                0x000000000001572c       0x20 common/built-in.o
                0x000000000001572c                genimg_get_kernel_addr_fit
 .text.genimg_get_format
                0x000000000001574c       0x34 common/built-in.o
                0x000000000001574c                genimg_get_format
 .text.genimg_get_image
                0x0000000000015780        0x4 common/built-in.o
                0x0000000000015780                genimg_get_image
 .text.boot_get_ramdisk
                0x0000000000015784      0x26c common/built-in.o
                0x0000000000015784                boot_get_ramdisk
 .text.boot_ramdisk_high
                0x00000000000159f0      0x138 common/built-in.o
                0x00000000000159f0                boot_ramdisk_high
 .text.boot_get_setup
                0x0000000000015b28        0x8 common/built-in.o
                0x0000000000015b28                boot_get_setup
 .text.get_effective_memsize
                0x0000000000015b30        0x8 common/built-in.o
                0x0000000000015b30                get_effective_memsize
 .text.stdio_serial_tstc
                0x0000000000015b38        0x4 common/built-in.o
 .text.stdio_serial_getc
                0x0000000000015b3c        0x4 common/built-in.o
 .text.stdio_serial_puts
                0x0000000000015b40        0x8 common/built-in.o
 .text.stdio_serial_putc
                0x0000000000015b48        0x8 common/built-in.o
 .text.stdio_get_list
                0x0000000000015b50        0xc common/built-in.o
                0x0000000000015b50                stdio_get_list
 .text.stdio_get_by_name
                0x0000000000015b5c       0x5c common/built-in.o
                0x0000000000015b5c                stdio_get_by_name
 .text.stdio_clone
                0x0000000000015bb8       0x34 common/built-in.o
                0x0000000000015bb8                stdio_clone
 .text.stdio_register_dev
                0x0000000000015bec       0x50 common/built-in.o
                0x0000000000015bec                stdio_register_dev
 .text.stdio_register
                0x0000000000015c3c        0x8 common/built-in.o
                0x0000000000015c3c                stdio_register
 .text.stdio_init_tables
                0x0000000000015c44       0x1c common/built-in.o
                0x0000000000015c44                stdio_init_tables
 .text.stdio_add_devices
                0x0000000000015c60       0x78 common/built-in.o
                0x0000000000015c60                stdio_add_devices
 .text.run_command
                0x0000000000015cd8       0x10 common/built-in.o
                0x0000000000015cd8                run_command
 .text.run_command_list
                0x0000000000015ce8       0x78 common/built-in.o
                0x0000000000015ce8                run_command_list
 .text.do_run   0x0000000000015d60       0x78 common/built-in.o
                0x0000000000015d60                do_run
 .text.cli_loop
                0x0000000000015dd8        0xc common/built-in.o
                0x0000000000015dd8                cli_loop
 .text.cli_init
                0x0000000000015de4        0x4 common/built-in.o
                0x0000000000015de4                cli_init
 .text.delete_char.part.0
                0x0000000000015de8       0xd0 common/built-in.o
 .text.cread_add_char
                0x0000000000015eb8       0xe0 common/built-in.o
 .text.cli_readline_into_buffer
                0x0000000000015f98      0x920 common/built-in.o
                0x0000000000015f98                cli_readline_into_buffer
 .text.cli_readline
                0x00000000000168b8       0x14 common/built-in.o
                0x00000000000168b8                cli_readline
 .text.find_cmd_tbl
                0x00000000000168cc       0xa4 common/built-in.o
                0x00000000000168cc                find_cmd_tbl
 .text.find_cmd
                0x0000000000016970       0x28 common/built-in.o
                0x0000000000016970                find_cmd
 .text.cmd_usage
                0x0000000000016998       0x5c common/built-in.o
                0x0000000000016998                cmd_usage
 .text._do_help
                0x00000000000169f4      0x174 common/built-in.o
                0x00000000000169f4                _do_help
 .text.cmd_get_data_size
                0x0000000000016b68       0x5c common/built-in.o
                0x0000000000016b68                cmd_get_data_size
 .text.cmd_process
                0x0000000000016bc4       0xec common/built-in.o
                0x0000000000016bc4                cmd_process
 .text.hex1_bin
                0x0000000000016cb0       0x40 common/built-in.o
 .text.hex2_bin
                0x0000000000016cf0       0x38 common/built-in.o
 .text.srec_decode
                0x0000000000016d28      0x258 common/built-in.o
                0x0000000000016d28                srec_decode
 .text.CYGACC_COMM_IF_GETC_TIMEOUT.isra.0
                0x0000000000016f80       0x5c common/built-in.o
 .text.xyzModem_flush
                0x0000000000016fdc       0x1c common/built-in.o
 .text.xyzModem_get_hdr
                0x0000000000016ff8      0x244 common/built-in.o
 .text.xyzModem_stream_open
                0x000000000001723c      0x224 common/built-in.o
                0x000000000001723c                xyzModem_stream_open
 .text.xyzModem_stream_read
                0x0000000000017460      0x254 common/built-in.o
                0x0000000000017460                xyzModem_stream_read
 .text.xyzModem_stream_close
                0x00000000000176b4       0x54 common/built-in.o
                0x00000000000176b4                xyzModem_stream_close
 .text.xyzModem_stream_terminate
                0x0000000000017708       0x98 common/built-in.o
                0x0000000000017708                xyzModem_stream_terminate
 .text.xyzModem_error
                0x00000000000177a0       0x20 common/built-in.o
                0x00000000000177a0                xyzModem_error
 .text.get_dev_hwpart
                0x00000000000177c0       0xb8 disk/built-in.o
 .text.dev_print
                0x0000000000017878      0x220 disk/built-in.o
                0x0000000000017878                dev_print
 .text.part_init
                0x0000000000017a98       0x54 disk/built-in.o
                0x0000000000017a98                part_init
 .text.part_print
                0x0000000000017aec      0x12c disk/built-in.o
                0x0000000000017aec                part_print
 .text.part_get_info
                0x0000000000017c18       0x68 disk/built-in.o
                0x0000000000017c18                part_get_info
 .text.blk_get_device_by_str
                0x0000000000017c80      0x124 disk/built-in.o
                0x0000000000017c80                blk_get_device_by_str
 .text.blk_get_device_part_str
                0x0000000000017da4      0x468 disk/built-in.o
                0x0000000000017da4                blk_get_device_part_str
 .text.test_block_type
                0x000000000001820c       0x84 disk/built-in.o
 .text.print_partition_extended
                0x0000000000018290      0x274 disk/built-in.o
 .text.part_print_dos
                0x0000000000018504       0x34 disk/built-in.o
                0x0000000000018504                part_print_dos
 .text.part_test_dos
                0x0000000000018538       0x5c disk/built-in.o
 .text.part_get_info_extended.constprop.1
                0x0000000000018594      0x2fc disk/built-in.o
 .text.part_get_info_dos
                0x0000000000018890       0x20 disk/built-in.o
                0x0000000000018890                part_get_info_dos
 .text.rtc_calc_weekday
                0x00000000000188b0       0xf8 drivers/built-in.o
                0x00000000000188b0                rtc_calc_weekday
 .text.rtc_to_tm
                0x00000000000189a8      0x114 drivers/built-in.o
                0x00000000000189a8                rtc_to_tm
 .text.rtc_get  0x0000000000018abc      0x128 drivers/built-in.o
                0x0000000000018abc                rtc_get
 .text.rtc_set  0x0000000000018be4      0x184 drivers/built-in.o
                0x0000000000018be4                rtc_set
 .text.rtc_reset
                0x0000000000018d68       0x24 drivers/built-in.o
                0x0000000000018d68                rtc_reset
 .text.idr_get_next
                0x0000000000018d8c       0x44 drivers/mtd/built-in.o
                0x0000000000018d8c                idr_get_next
 .text.__mtd_next_device
                0x0000000000018dd0       0x20 drivers/mtd/built-in.o
                0x0000000000018dd0                __mtd_next_device
 .text.del_mtd_device
                0x0000000000018df0       0x74 drivers/mtd/built-in.o
                0x0000000000018df0                del_mtd_device
 .text.__get_mtd_device
                0x0000000000018e64       0x3c drivers/mtd/built-in.o
                0x0000000000018e64                __get_mtd_device
 .text.get_mtd_device
                0x0000000000018ea0       0x8c drivers/mtd/built-in.o
                0x0000000000018ea0                get_mtd_device
 .text.get_mtd_device_nm
                0x0000000000018f2c       0x58 drivers/mtd/built-in.o
                0x0000000000018f2c                get_mtd_device_nm
 .text.__put_mtd_device
                0x0000000000018f84       0x4c drivers/mtd/built-in.o
                0x0000000000018f84                __put_mtd_device
 .text.put_mtd_device
                0x0000000000018fd0        0x4 drivers/mtd/built-in.o
                0x0000000000018fd0                put_mtd_device
 .text.mtd_erase
                0x0000000000018fd4       0x94 drivers/mtd/built-in.o
                0x0000000000018fd4                mtd_erase
 .text.mtd_read
                0x0000000000019068       0xa8 drivers/mtd/built-in.o
                0x0000000000019068                mtd_read
 .text.mtd_write
                0x0000000000019110       0xa0 drivers/mtd/built-in.o
                0x0000000000019110                mtd_write
 .text.mtd_read_oob
                0x00000000000191b0       0x64 drivers/mtd/built-in.o
                0x00000000000191b0                mtd_read_oob
 .text.mtd_unlock
                0x0000000000019214       0x7c drivers/mtd/built-in.o
                0x0000000000019214                mtd_unlock
 .text.add_mtd_device
                0x0000000000019290      0x1cc drivers/mtd/built-in.o
                0x0000000000019290                add_mtd_device
 .text.mtd_block_isbad
                0x000000000001945c       0x54 drivers/mtd/built-in.o
                0x000000000001945c                mtd_block_isbad
 .text.mtd_block_markbad
                0x00000000000194b0       0x68 drivers/mtd/built-in.o
                0x00000000000194b0                mtd_block_markbad
 .text.mtd_arg_off
                0x0000000000019518       0xfc drivers/mtd/built-in.o
                0x0000000000019518                mtd_arg_off
 .text.mtd_arg_off_size
                0x0000000000019614      0x124 drivers/mtd/built-in.o
                0x0000000000019614                mtd_arg_off_size
 .text.part_get_unmapped_area
                0x0000000000019738       0x24 drivers/mtd/built-in.o
 .text.part_read_user_prot_reg
                0x000000000001975c        0xc drivers/mtd/built-in.o
 .text.part_get_user_prot_info
                0x0000000000019768       0x18 drivers/mtd/built-in.o
 .text.part_read_fact_prot_reg
                0x0000000000019780        0xc drivers/mtd/built-in.o
 .text.part_get_fact_prot_info
                0x000000000001978c       0x18 drivers/mtd/built-in.o
 .text.part_write
                0x00000000000197a4       0x2c drivers/mtd/built-in.o
 .text.part_panic_write
                0x00000000000197d0       0x2c drivers/mtd/built-in.o
 .text.part_write_oob
                0x00000000000197fc       0x74 drivers/mtd/built-in.o
 .text.part_write_user_prot_reg
                0x0000000000019870        0xc drivers/mtd/built-in.o
 .text.part_lock_user_prot_reg
                0x000000000001987c        0xc drivers/mtd/built-in.o
 .text.part_lock
                0x0000000000019888       0x2c drivers/mtd/built-in.o
 .text.part_unlock
                0x00000000000198b4       0x2c drivers/mtd/built-in.o
 .text.part_is_locked
                0x00000000000198e0       0x2c drivers/mtd/built-in.o
 .text.part_sync
                0x000000000001990c        0xc drivers/mtd/built-in.o
 .text.part_block_isreserved
                0x0000000000019918       0x24 drivers/mtd/built-in.o
 .text.part_block_isbad
                0x000000000001993c       0x24 drivers/mtd/built-in.o
 .text.part_block_markbad
                0x0000000000019960       0x3c drivers/mtd/built-in.o
 .text.part_read
                0x000000000001999c       0x80 drivers/mtd/built-in.o
 .text.part_read_oob
                0x0000000000019a1c      0x1ac drivers/mtd/built-in.o
 .text.part_erase
                0x0000000000019bc8       0x94 drivers/mtd/built-in.o
 .text.kstrdup  0x0000000000019c5c       0x50 drivers/mtd/built-in.o
                0x0000000000019c5c                kstrdup
 .text.mtd_erase_callback
                0x0000000000019cac       0x80 drivers/mtd/built-in.o
                0x0000000000019cac                mtd_erase_callback
 .text.del_mtd_partitions
                0x0000000000019d2c       0x94 drivers/mtd/built-in.o
                0x0000000000019d2c                del_mtd_partitions
 .text.add_mtd_partitions
                0x0000000000019dc0      0x778 drivers/mtd/built-in.o
                0x0000000000019dc0                add_mtd_partitions
 .text.mtd_is_partition
                0x000000000001a538       0x3c drivers/mtd/built-in.o
                0x000000000001a538                mtd_is_partition
 .text.mtd_get_device_size
                0x000000000001a574       0x30 drivers/mtd/built-in.o
                0x000000000001a574                mtd_get_device_size
 .text.flash_make_cmd
                0x000000000001a5a4       0x5c drivers/mtd/built-in.o
 .text.flash_isequal
                0x000000000001a600       0xb4 drivers/mtd/built-in.o
 .text.flash_isset
                0x000000000001a6b4       0xbc drivers/mtd/built-in.o
 .text.find_sector
                0x000000000001a770       0x94 drivers/mtd/built-in.o
 .text.cfi_reverse_geometry
                0x000000000001a804       0xac drivers/mtd/built-in.o
 .text.flash_add_byte.isra.3
                0x000000000001a8b0       0x8c drivers/mtd/built-in.o
 .text.cfi_flash_bank_addr
                0x000000000001a93c        0x8 drivers/mtd/built-in.o
                0x000000000001a93c                cfi_flash_bank_addr
 .text.cfi_flash_bank_size
                0x000000000001a944        0x8 drivers/mtd/built-in.o
                0x000000000001a944                cfi_flash_bank_size
 .text.flash_get_info
                0x000000000001a94c       0x48 drivers/mtd/built-in.o
                0x000000000001a94c                flash_get_info
 .text.flash_write_cmd
                0x000000000001a994       0x90 drivers/mtd/built-in.o
                0x000000000001a994                flash_write_cmd
 .text.flash_unlock_seq
                0x000000000001aa24       0x30 drivers/mtd/built-in.o
 .text.flash_full_status_check
                0x000000000001aa54      0x2f8 drivers/mtd/built-in.o
 .text.flash_write_cfiword
                0x000000000001ad4c      0x230 drivers/mtd/built-in.o
 .text.cmdset_intel_read_jedec_ids
                0x000000000001af7c       0x78 drivers/mtd/built-in.o
 .text.cmdset_amd_read_jedec_ids
                0x000000000001aff4      0x108 drivers/mtd/built-in.o
 .text.flash_erase
                0x000000000001b0fc      0x1fc drivers/mtd/built-in.o
                0x000000000001b0fc                flash_erase
 .text.flash_print_info
                0x000000000001b2f8      0x238 drivers/mtd/built-in.o
                0x000000000001b2f8                flash_print_info
 .text.write_buff
                0x000000000001b530      0x2a4 drivers/mtd/built-in.o
                0x000000000001b530                write_buff
 .text.__flash_cmd_reset
                0x000000000001b7d4       0x38 drivers/mtd/built-in.o
                0x000000000001b7d4                flash_cmd_reset
 .text.flash_get_size
                0x000000000001b80c      0x818 drivers/mtd/built-in.o
                0x000000000001b80c                flash_get_size
 .text.flash_protect_default
                0x000000000001c024       0x50 drivers/mtd/built-in.o
                0x000000000001c024                flash_protect_default
 .text.flash_init
                0x000000000001c074      0x1cc drivers/mtd/built-in.o
                0x000000000001c074                flash_init
 .text.jedec_flash_match
                0x000000000001c240      0x1a0 drivers/mtd/built-in.o
                0x000000000001c240                jedec_flash_match
 .text.nand_register
                0x000000000001c3e0       0x94 drivers/mtd/nand/built-in.o
                0x000000000001c3e0                nand_register
 .text.nand_init
                0x000000000001c474       0x64 drivers/mtd/nand/built-in.o
                0x000000000001c474                nand_init
 .text.verify_bbt_descr
                0x000000000001c4d8      0x148 drivers/mtd/nand/built-in.o
 .text.create_bbt
                0x000000000001c620      0x250 drivers/mtd/nand/built-in.o
 .text.scan_read
                0x000000000001c870      0x100 drivers/mtd/nand/built-in.o
 .text.read_bbt
                0x000000000001c970      0x200 drivers/mtd/nand/built-in.o
 .text.read_abs_bbt
                0x000000000001cb70       0xd8 drivers/mtd/nand/built-in.o
 .text.write_bbt
                0x000000000001cc48      0x600 drivers/mtd/nand/built-in.o
 .text.nand_update_bbt
                0x000000000001d248      0x124 drivers/mtd/nand/built-in.o
 .text.mark_bbt_region
                0x000000000001d36c      0x188 drivers/mtd/nand/built-in.o
 .text.search_bbt
                0x000000000001d4f4      0x1b4 drivers/mtd/nand/built-in.o
 .text.nand_scan_bbt
                0x000000000001d6a8      0x4e0 drivers/mtd/nand/built-in.o
                0x000000000001d6a8                nand_scan_bbt
 .text.nand_default_bbt
                0x000000000001db88       0xd0 drivers/mtd/nand/built-in.o
                0x000000000001db88                nand_default_bbt
 .text.nand_isreserved_bbt
                0x000000000001dc58       0x48 drivers/mtd/nand/built-in.o
                0x000000000001dc58                nand_isreserved_bbt
 .text.nand_isbad_bbt
                0x000000000001dca0       0x5c drivers/mtd/nand/built-in.o
                0x000000000001dca0                nand_isbad_bbt
 .text.nand_markbad_bbt
                0x000000000001dcfc       0x60 drivers/mtd/nand/built-in.o
                0x000000000001dcfc                nand_markbad_bbt
 .text.check_skip_len
                0x000000000001dd5c       0xb4 drivers/mtd/nand/built-in.o
 .text.nand_erase_opts
                0x000000000001de10      0x3e0 drivers/mtd/nand/built-in.o
                0x000000000001de10                nand_erase_opts
 .text.nand_verify_page_oob
                0x000000000001e1f0       0xc0 drivers/mtd/nand/built-in.o
                0x000000000001e1f0                nand_verify_page_oob
 .text.nand_verify
                0x000000000001e2b0      0x104 drivers/mtd/nand/built-in.o
                0x000000000001e2b0                nand_verify
 .text.nand_write_skip_bad
                0x000000000001e3b4      0x2fc drivers/mtd/nand/built-in.o
                0x000000000001e3b4                nand_write_skip_bad
 .text.nand_read_skip_bad
                0x000000000001e6b0      0x270 drivers/mtd/nand/built-in.o
                0x000000000001e6b0                nand_read_skip_bad
 .text.nand_calculate_ecc
                0x000000000001e920       0xf0 drivers/mtd/nand/built-in.o
                0x000000000001e920                nand_calculate_ecc
 .text.nand_correct_data
                0x000000000001ea10      0x124 drivers/mtd/nand/built-in.o
                0x000000000001ea10                nand_correct_data
 .text.nand_release_device
                0x000000000001eb34       0x10 drivers/mtd/nand/built-in.o
 .text.nand_read_byte
                0x000000000001eb44       0x14 drivers/mtd/nand/built-in.o
                0x000000000001eb44                nand_read_byte
 .text.nand_read_byte16
                0x000000000001eb58       0x14 drivers/mtd/nand/built-in.o
 .text.nand_read_word
                0x000000000001eb6c       0x10 drivers/mtd/nand/built-in.o
 .text.nand_write_byte
                0x000000000001eb7c       0x28 drivers/mtd/nand/built-in.o
 .text.nand_write_byte16
                0x000000000001eba4       0x28 drivers/mtd/nand/built-in.o
 .text.nand_write_buf
                0x000000000001ebcc       0x28 drivers/mtd/nand/built-in.o
                0x000000000001ebcc                nand_write_buf
 .text.nand_read_buf
                0x000000000001ebf4       0x2c drivers/mtd/nand/built-in.o
                0x000000000001ebf4                nand_read_buf
 .text.nand_write_buf16
                0x000000000001ec20       0x30 drivers/mtd/nand/built-in.o
                0x000000000001ec20                nand_write_buf16
 .text.nand_read_buf16
                0x000000000001ec50       0x30 drivers/mtd/nand/built-in.o
                0x000000000001ec50                nand_read_buf16
 .text.nand_check_wp
                0x000000000001ec80       0x50 drivers/mtd/nand/built-in.o
 .text.nand_read_page_raw_syndrome
                0x000000000001ecd0       0xd0 drivers/mtd/nand/built-in.o
 .text.nand_read_page_swecc
                0x000000000001eda0      0x138 drivers/mtd/nand/built-in.o
 .text.nand_read_subpage
                0x000000000001eed8      0x270 drivers/mtd/nand/built-in.o
 .text.nand_read_page_hwecc
                0x000000000001f148      0x158 drivers/mtd/nand/built-in.o
 .text.nand_read_page_hwecc_oob_first
                0x000000000001f2a0      0x148 drivers/mtd/nand/built-in.o
 .text.nand_read_page_syndrome
                0x000000000001f3e8      0x140 drivers/mtd/nand/built-in.o
 .text.nand_setup_read_retry
                0x000000000001f528       0x30 drivers/mtd/nand/built-in.o
 .text.nand_read_oob_std
                0x000000000001f558       0x3c drivers/mtd/nand/built-in.o
 .text.nand_read_oob_syndrome
                0x000000000001f594      0x104 drivers/mtd/nand/built-in.o
 .text.nand_write_oob_std
                0x000000000001f698       0x70 drivers/mtd/nand/built-in.o
 .text.nand_write_oob_syndrome
                0x000000000001f708      0x194 drivers/mtd/nand/built-in.o
 .text.nand_write_page_raw_syndrome
                0x000000000001f89c       0xd0 drivers/mtd/nand/built-in.o
 .text.nand_write_page_swecc
                0x000000000001f96c       0xbc drivers/mtd/nand/built-in.o
 .text.nand_write_page_hwecc
                0x000000000001fa28       0xd0 drivers/mtd/nand/built-in.o
 .text.nand_write_page_syndrome
                0x000000000001faf8       0xf0 drivers/mtd/nand/built-in.o
 .text.single_erase
                0x000000000001fbe8       0x4c drivers/mtd/nand/built-in.o
 .text.nand_sync
                0x000000000001fc34       0x10 drivers/mtd/nand/built-in.o
 .text.nand_onfi_set_features
                0x000000000001fc44       0x5c drivers/mtd/nand/built-in.o
 .text.nand_set_defaults
                0x000000000001fca0      0x18c drivers/mtd/nand/built-in.o
 .text.nand_block_checkbad
                0x000000000001fe2c       0x80 drivers/mtd/nand/built-in.o
 .text.nand_block_isbad
                0x000000000001feac       0x1c drivers/mtd/nand/built-in.o
 .text.nand_onfi_get_features
                0x000000000001fec8       0x60 drivers/mtd/nand/built-in.o
 .text.nand_write_subpage_hwecc
                0x000000000001ff28      0x188 drivers/mtd/nand/built-in.o
 .text.nand_block_bad
                0x00000000000200b0      0x1c8 drivers/mtd/nand/built-in.o
 .text.nand_write_page
                0x0000000000020278      0x148 drivers/mtd/nand/built-in.o
 .text.nand_fill_oob
                0x00000000000203c0      0x11c drivers/mtd/nand/built-in.o
 .text.nand_do_write_oob
                0x00000000000204dc      0x1b4 drivers/mtd/nand/built-in.o
 .text.nand_default_block_markbad
                0x0000000000020690       0xe4 drivers/mtd/nand/built-in.o
 .text.nand_do_write_ops
                0x0000000000020774      0x374 drivers/mtd/nand/built-in.o
 .text.nand_write_oob
                0x0000000000020ae8       0xa8 drivers/mtd/nand/built-in.o
 .text.nand_write
                0x0000000000020b90       0x84 drivers/mtd/nand/built-in.o
 .text.nand_wait
                0x0000000000020c14       0xdc drivers/mtd/nand/built-in.o
 .text.unlikely.sanitize_string
                0x0000000000020cf0       0x38 drivers/mtd/nand/built-in.o
 .text.nand_block_isreserved
                0x0000000000020d28       0x18 drivers/mtd/nand/built-in.o
 .text.nand_read_page_raw
                0x0000000000020d40       0x40 drivers/mtd/nand/built-in.o
 .text.nand_write_page_raw
                0x0000000000020d80       0x40 drivers/mtd/nand/built-in.o
 .text.nand_select_chip
                0x0000000000020dc0       0x50 drivers/mtd/nand/built-in.o
 .text.nand_transfer_oob
                0x0000000000020e10      0x108 drivers/mtd/nand/built-in.o
 .text.panic_nand_write
                0x0000000000020f18       0xc8 drivers/mtd/nand/built-in.o
 .text.nand_wait_status_ready.constprop.14
                0x0000000000020fe0       0x44 drivers/mtd/nand/built-in.o
 .text.nand_wait_ready
                0x0000000000021024       0x50 drivers/mtd/nand/built-in.o
                0x0000000000021024                nand_wait_ready
 .text.nand_command
                0x0000000000021074      0x1d8 drivers/mtd/nand/built-in.o
 .text.nand_command_lp
                0x000000000002124c      0x244 drivers/mtd/nand/built-in.o
 .text.nand_do_read_ops
                0x0000000000021490      0x488 drivers/mtd/nand/built-in.o
 .text.nand_read_oob
                0x0000000000021918      0x2e4 drivers/mtd/nand/built-in.o
 .text.nand_read
                0x0000000000021bfc       0x84 drivers/mtd/nand/built-in.o
 .text.nand_erase_nand
                0x0000000000021c80      0x298 drivers/mtd/nand/built-in.o
                0x0000000000021c80                nand_erase_nand
 .text.nand_block_markbad
                0x0000000000021f18       0xec drivers/mtd/nand/built-in.o
 .text.nand_erase
                0x0000000000022004        0x8 drivers/mtd/nand/built-in.o
 .text.nand_scan_ident
                0x000000000002200c      0xc70 drivers/mtd/nand/built-in.o
                0x000000000002200c                nand_scan_ident
 .text.nand_scan_tail
                0x0000000000022c7c      0x61c drivers/mtd/nand/built-in.o
                0x0000000000022c7c                nand_scan_tail
 .text.nand_scan
                0x0000000000023298       0x24 drivers/mtd/nand/built-in.o
                0x0000000000023298                nand_scan
 .text.s3c24x0_hwcontrol
                0x00000000000232bc       0x58 drivers/mtd/nand/built-in.o
 .text.s3c24x0_dev_ready
                0x0000000000023314       0x10 drivers/mtd/nand/built-in.o
 .text.board_nand_init
                0x0000000000023324       0x5c drivers/mtd/nand/built-in.o
                0x0000000000023324                board_nand_init
 .text.add_to_list
                0x0000000000023380       0xd0 drivers/mtd/ubi/built-in.o
 .text.destroy_ai
                0x0000000000023450      0x214 drivers/mtd/ubi/built-in.o
 .text.validate_vid_hdr.isra.2
                0x0000000000023664      0x364 drivers/mtd/ubi/built-in.o
 .text.ubi_compare_lebs
                0x00000000000239c8      0x2bc drivers/mtd/ubi/built-in.o
                0x00000000000239c8                ubi_compare_lebs
 .text.ubi_add_to_av
                0x0000000000023c84      0x530 drivers/mtd/ubi/built-in.o
                0x0000000000023c84                ubi_add_to_av
 .text.ubi_find_av
                0x00000000000241b4       0x34 drivers/mtd/ubi/built-in.o
                0x00000000000241b4                ubi_find_av
 .text.ubi_remove_av
                0x00000000000241e8       0x68 drivers/mtd/ubi/built-in.o
                0x00000000000241e8                ubi_remove_av
 .text.ubi_early_get_peb
                0x0000000000024250      0x1a8 drivers/mtd/ubi/built-in.o
                0x0000000000024250                ubi_early_get_peb
 .text.ubi_attach
                0x00000000000243f8      0xfdc drivers/mtd/ubi/built-in.o
                0x00000000000243f8                ubi_attach
 .text.kill_volumes
                0x00000000000253d4       0x38 drivers/mtd/ubi/built-in.o
 .text.ubi_volume_notify
                0x000000000002540c       0x34 drivers/mtd/ubi/built-in.o
                0x000000000002540c                ubi_volume_notify
 .text.ubi_notify_all
                0x0000000000025440       0x60 drivers/mtd/ubi/built-in.o
                0x0000000000025440                ubi_notify_all
 .text.ubi_get_device
                0x00000000000254a0       0x20 drivers/mtd/ubi/built-in.o
                0x00000000000254a0                ubi_get_device
 .text.ubi_put_device
                0x00000000000254c0       0x10 drivers/mtd/ubi/built-in.o
                0x00000000000254c0                ubi_put_device
 .text.ubi_free_internal_volumes
                0x00000000000254d0       0x44 drivers/mtd/ubi/built-in.o
                0x00000000000254d0                ubi_free_internal_volumes
 .text.ubi_attach_mtd_dev
                0x0000000000025514      0x740 drivers/mtd/ubi/built-in.o
                0x0000000000025514                ubi_attach_mtd_dev
 .text.ubi_detach_mtd_dev
                0x0000000000025c54       0xe8 drivers/mtd/ubi/built-in.o
                0x0000000000025c54                ubi_detach_mtd_dev
 .text.ubi_init
                0x0000000000025d3c      0x144 drivers/mtd/ubi/built-in.o
                0x0000000000025d3c                ubi_init
 .text.ubi_exit
                0x0000000000025e80       0x58 drivers/mtd/ubi/built-in.o
                0x0000000000025e80                ubi_exit
 .text.kstrtoint
                0x0000000000025ed8       0x24 drivers/mtd/ubi/built-in.o
                0x0000000000025ed8                kstrtoint
 .text.ubi_mtd_param_parse
                0x0000000000025efc      0x1dc drivers/mtd/ubi/built-in.o
                0x0000000000025efc                ubi_mtd_param_parse
 .text.ubi_update_layout_vol
                0x00000000000260d8       0x50 drivers/mtd/ubi/built-in.o
 .text.vtbl_check
                0x0000000000026128      0x320 drivers/mtd/ubi/built-in.o
 .text.create_vtbl
                0x0000000000026448      0x254 drivers/mtd/ubi/built-in.o
 .text.ubi_change_vtbl_record
                0x000000000002669c       0xd8 drivers/mtd/ubi/built-in.o
                0x000000000002669c                ubi_change_vtbl_record
 .text.ubi_read_volume_table
                0x0000000000026774      0x750 drivers/mtd/ubi/built-in.o
                0x0000000000026774                ubi_read_volume_table
 .text.vol_release
                0x0000000000026ec4       0x1c drivers/mtd/ubi/built-in.o
 .text.self_check_volumes
                0x0000000000026ee0      0x374 drivers/mtd/ubi/built-in.o
 .text.ubi_create_volume
                0x0000000000027254      0x4b0 drivers/mtd/ubi/built-in.o
                0x0000000000027254                ubi_create_volume
 .text.ubi_resize_volume
                0x0000000000027704      0x248 drivers/mtd/ubi/built-in.o
                0x0000000000027704                ubi_resize_volume
 .text.ubi_add_volume
                0x000000000002794c       0x30 drivers/mtd/ubi/built-in.o
                0x000000000002794c                ubi_add_volume
 .text.ubi_free_volume
                0x000000000002797c       0x18 drivers/mtd/ubi/built-in.o
                0x000000000002797c                ubi_free_volume
 .text.clear_update_marker
                0x0000000000027994       0xe8 drivers/mtd/ubi/built-in.o
 .text.write_leb
                0x0000000000027a7c       0xb8 drivers/mtd/ubi/built-in.o
 .text.ubi_start_update
                0x0000000000027b34      0x190 drivers/mtd/ubi/built-in.o
                0x0000000000027b34                ubi_start_update
 .text.ubi_more_update_data
                0x0000000000027cc4      0x2b4 drivers/mtd/ubi/built-in.o
                0x0000000000027cc4                ubi_more_update_data
 .text.ubi_do_get_device_info
                0x0000000000027f78       0x34 drivers/mtd/ubi/built-in.o
                0x0000000000027f78                ubi_do_get_device_info
 .text.ubi_get_device_info
                0x0000000000027fac       0x44 drivers/mtd/ubi/built-in.o
                0x0000000000027fac                ubi_get_device_info
 .text.ubi_do_get_volume_info
                0x0000000000027ff0       0x80 drivers/mtd/ubi/built-in.o
                0x0000000000027ff0                ubi_do_get_volume_info
 .text.ubi_get_volume_info
                0x0000000000028070       0x14 drivers/mtd/ubi/built-in.o
                0x0000000000028070                ubi_get_volume_info
 .text.ubi_close_volume
                0x0000000000028084       0x80 drivers/mtd/ubi/built-in.o
                0x0000000000028084                ubi_close_volume
 .text.ubi_open_volume
                0x0000000000028104      0x1c0 drivers/mtd/ubi/built-in.o
                0x0000000000028104                ubi_open_volume
 .text.ubi_open_volume_nm
                0x00000000000282c4       0xe0 drivers/mtd/ubi/built-in.o
                0x00000000000282c4                ubi_open_volume_nm
 .text.ubi_leb_read
                0x00000000000283a4       0xf8 drivers/mtd/ubi/built-in.o
                0x00000000000283a4                ubi_leb_read
 .text.ubi_leb_unmap
                0x000000000002849c       0x68 drivers/mtd/ubi/built-in.o
                0x000000000002849c                ubi_leb_unmap
 .text.ubi_is_mapped
                0x0000000000028504       0x48 drivers/mtd/ubi/built-in.o
                0x0000000000028504                ubi_is_mapped
 .text.ltree_lookup.isra.1
                0x000000000002854c       0x3c drivers/mtd/ubi/built-in.o
 .text.leb_write_trylock
                0x0000000000028588       0xe0 drivers/mtd/ubi/built-in.o
 .text.leb_write_unlock
                0x0000000000028668       0x3c drivers/mtd/ubi/built-in.o
 .text.is_error_sane
                0x00000000000286a4       0x30 drivers/mtd/ubi/built-in.o
 .text.ubi_eba_unmap_leb
                0x00000000000286d4       0x80 drivers/mtd/ubi/built-in.o
                0x00000000000286d4                ubi_eba_unmap_leb
 .text.ubi_eba_read_leb
                0x0000000000028754      0x23c drivers/mtd/ubi/built-in.o
                0x0000000000028754                ubi_eba_read_leb
 .text.ubi_eba_write_leb
                0x0000000000028990      0x720 drivers/mtd/ubi/built-in.o
                0x0000000000028990                ubi_eba_write_leb
 .text.ubi_eba_write_leb_st
                0x00000000000290b0      0x4a4 drivers/mtd/ubi/built-in.o
                0x00000000000290b0                ubi_eba_write_leb_st
 .text.ubi_eba_atomic_leb_change
                0x0000000000029554      0x428 drivers/mtd/ubi/built-in.o
                0x0000000000029554                ubi_eba_atomic_leb_change
 .text.ubi_eba_copy_leb
                0x000000000002997c      0x428 drivers/mtd/ubi/built-in.o
                0x000000000002997c                ubi_eba_copy_leb
 .text.ubi_eba_init
                0x0000000000029da4      0x200 drivers/mtd/ubi/built-in.o
                0x0000000000029da4                ubi_eba_init
 .text.erase_callback
                0x0000000000029fa4        0x4 drivers/mtd/ubi/built-in.o
 .text.validate_ec_hdr
                0x0000000000029fa8      0x130 drivers/mtd/ubi/built-in.o
 .text.self_check_ec_hdr.isra.0.part.1
                0x000000000002a0d8       0x6c drivers/mtd/ubi/built-in.o
 .text.self_check_vid_hdr.isra.3.part.4
                0x000000000002a144       0x70 drivers/mtd/ubi/built-in.o
 .text.ubi_io_is_bad
                0x000000000002a1b4       0x34 drivers/mtd/ubi/built-in.o
                0x000000000002a1b4                ubi_io_is_bad
 .text.self_check_not_bad.part.5
                0x000000000002a1e8       0x18 drivers/mtd/ubi/built-in.o
 .text.ubi_io_read
                0x000000000002a200       0xe8 drivers/mtd/ubi/built-in.o
                0x000000000002a200                ubi_io_read
 .text.self_check_peb_ec_hdr.part.7
                0x000000000002a2e8       0xf4 drivers/mtd/ubi/built-in.o
 .text.ubi_io_mark_bad
                0x000000000002a3dc       0x44 drivers/mtd/ubi/built-in.o
                0x000000000002a3dc                ubi_io_mark_bad
 .text.ubi_io_read_ec_hdr
                0x000000000002a420      0x174 drivers/mtd/ubi/built-in.o
                0x000000000002a420                ubi_io_read_ec_hdr
 .text.ubi_io_read_vid_hdr
                0x000000000002a594      0x178 drivers/mtd/ubi/built-in.o
                0x000000000002a594                ubi_io_read_vid_hdr
 .text.ubi_self_check_all_ff
                0x000000000002a70c       0xd4 drivers/mtd/ubi/built-in.o
                0x000000000002a70c                ubi_self_check_all_ff
 .text.ubi_io_write
                0x000000000002a7e0      0x350 drivers/mtd/ubi/built-in.o
                0x000000000002a7e0                ubi_io_write
 .text.ubi_io_write_ec_hdr
                0x000000000002ab30      0x184 drivers/mtd/ubi/built-in.o
                0x000000000002ab30                ubi_io_write_ec_hdr
 .text.ubi_io_write_vid_hdr
                0x000000000002acb4      0x100 drivers/mtd/ubi/built-in.o
                0x000000000002acb4                ubi_io_write_vid_hdr
 .text.do_sync_erase
                0x000000000002adb4      0x138 drivers/mtd/ubi/built-in.o
 .text.ubi_io_sync_erase
                0x000000000002aeec      0x29c drivers/mtd/ubi/built-in.o
                0x000000000002aeec                ubi_io_sync_erase
 .text.in_wl_tree
                0x000000000002b188       0x5c drivers/mtd/ubi/built-in.o
 .text.shutdown_work
                0x000000000002b1e4       0x5c drivers/mtd/ubi/built-in.o
 .text.prot_queue_del
                0x000000000002b240       0x78 drivers/mtd/ubi/built-in.o
 .text.find_wl_entry
                0x000000000002b2b8       0x84 drivers/mtd/ubi/built-in.o
 .text.wl_tree_add
                0x000000000002b33c       0x60 drivers/mtd/ubi/built-in.o
 .text.wl_entry_destroy.isra.1
                0x000000000002b39c       0x14 drivers/mtd/ubi/built-in.o
 .text.tree_destroy
                0x000000000002b3b0       0x64 drivers/mtd/ubi/built-in.o
 .text.self_check_in_wl_tree
                0x000000000002b414       0x30 drivers/mtd/ubi/built-in.o
 .text.get_peb_for_wl
                0x000000000002b444       0x50 drivers/mtd/ubi/built-in.o
 .text.do_work  0x000000000002b494       0x4c drivers/mtd/ubi/built-in.o
                0x000000000002b494                do_work
 .text.schedule_erase
                0x000000000002b4e0       0x88 drivers/mtd/ubi/built-in.o
 .text.ensure_wear_leveling
                0x000000000002b568       0xf4 drivers/mtd/ubi/built-in.o
 .text.erase_worker
                0x000000000002b65c      0x460 drivers/mtd/ubi/built-in.o
 .text.wear_leveling_worker
                0x000000000002babc      0x450 drivers/mtd/ubi/built-in.o
 .text.ubi_wl_put_peb
                0x000000000002bf0c      0x158 drivers/mtd/ubi/built-in.o
                0x000000000002bf0c                ubi_wl_put_peb
 .text.ubi_wl_scrub_peb
                0x000000000002c064      0x100 drivers/mtd/ubi/built-in.o
                0x000000000002c064                ubi_wl_scrub_peb
 .text.ubi_wl_flush
                0x000000000002c164       0xa4 drivers/mtd/ubi/built-in.o
                0x000000000002c164                ubi_wl_flush
 .text.ubi_wl_init
                0x000000000002c208      0x308 drivers/mtd/ubi/built-in.o
                0x000000000002c208                ubi_wl_init
 .text.ubi_wl_close
                0x000000000002c510       0xa4 drivers/mtd/ubi/built-in.o
                0x000000000002c510                ubi_wl_close
 .text.ubi_wl_get_peb
                0x000000000002c5b4      0x124 drivers/mtd/ubi/built-in.o
                0x000000000002c5b4                ubi_wl_get_peb
 .text.crc32_le
                0x000000000002c6d8       0xdc drivers/mtd/ubi/built-in.o
                0x000000000002c6d8                crc32_le
 .text.ubi_calc_data_len
                0x000000000002c7b4       0x34 drivers/mtd/ubi/built-in.o
                0x000000000002c7b4                ubi_calc_data_len
 .text.ubi_check_volume
                0x000000000002c7e8       0xb4 drivers/mtd/ubi/built-in.o
                0x000000000002c7e8                ubi_check_volume
 .text.ubi_update_reserved
                0x000000000002c89c       0x54 drivers/mtd/ubi/built-in.o
                0x000000000002c89c                ubi_update_reserved
 .text.ubi_calculate_reserved
                0x000000000002c8f0       0x18 drivers/mtd/ubi/built-in.o
                0x000000000002c8f0                ubi_calculate_reserved
 .text.ubi_check_pattern
                0x000000000002c908       0x2c drivers/mtd/ubi/built-in.o
                0x000000000002c908                ubi_check_pattern
 .text.ubi_dump_flash
                0x000000000002c934       0x94 drivers/mtd/ubi/built-in.o
                0x000000000002c934                ubi_dump_flash
 .text.ubi_dump_ec_hdr
                0x000000000002c9c8        0x4 drivers/mtd/ubi/built-in.o
                0x000000000002c9c8                ubi_dump_ec_hdr
 .text.ubi_dump_vid_hdr
                0x000000000002c9cc        0x4 drivers/mtd/ubi/built-in.o
                0x000000000002c9cc                ubi_dump_vid_hdr
 .text.ubi_dump_vol_info
                0x000000000002c9d0      0x158 drivers/mtd/ubi/built-in.o
                0x000000000002c9d0                ubi_dump_vol_info
 .text.ubi_dump_vtbl_record
                0x000000000002cb28       0x44 drivers/mtd/ubi/built-in.o
                0x000000000002cb28                ubi_dump_vtbl_record
 .text.ubi_dump_av
                0x000000000002cb6c        0x4 drivers/mtd/ubi/built-in.o
                0x000000000002cb6c                ubi_dump_av
 .text.ubi_dump_aeb
                0x000000000002cb70        0x4 drivers/mtd/ubi/built-in.o
                0x000000000002cb70                ubi_dump_aeb
 .text.ubi_debugfs_init
                0x000000000002cb74        0x8 drivers/mtd/ubi/built-in.o
                0x000000000002cb74                ubi_debugfs_init
 .text.ubi_debugfs_exit
                0x000000000002cb7c        0x4 drivers/mtd/ubi/built-in.o
                0x000000000002cb7c                ubi_debugfs_exit
 .text.ubi_debugfs_init_dev
                0x000000000002cb80        0x8 drivers/mtd/ubi/built-in.o
                0x000000000002cb80                ubi_debugfs_init_dev
 .text.ubi_debugfs_exit_dev
                0x000000000002cb88        0x4 drivers/mtd/ubi/built-in.o
                0x000000000002cb88                ubi_debugfs_exit_dev
 .text.ubi_dbg_power_cut
                0x000000000002cb8c        0x8 drivers/mtd/ubi/built-in.o
                0x000000000002cb8c                ubi_dbg_power_cut
 .text.get_reg_init_bus
                0x000000000002cb94       0x34 drivers/net/built-in.o
 .text.cs8900_reginit
                0x000000000002cbc8       0x90 drivers/net/built-in.o
 .text.cs8900_halt
                0x000000000002cc58       0x24 drivers/net/built-in.o
                0x000000000002cc58                cs8900_halt
 .text.cs8900_reset
                0x000000000002cc7c       0x74 drivers/net/built-in.o
 .text.cs8900_send
                0x000000000002ccf0       0xe4 drivers/net/built-in.o
 .text.cs8900_recv
                0x000000000002cdd4       0x98 drivers/net/built-in.o
 .text.cs8900_init
                0x000000000002ce6c       0xbc drivers/net/built-in.o
 .text.cs8900_get_enetaddr
                0x000000000002cf28       0xcc drivers/net/built-in.o
                0x000000000002cf28                cs8900_get_enetaddr
 .text.cs8900_initialize
                0x000000000002cff4       0xc0 drivers/net/built-in.o
                0x000000000002cff4                cs8900_initialize
 .text.serial_stub_start
                0x000000000002d0b4        0xc drivers/serial/built-in.o
 .text.serial_stub_stop
                0x000000000002d0c0        0xc drivers/serial/built-in.o
 .text.serial_stub_putc
                0x000000000002d0cc       0x10 drivers/serial/built-in.o
 .text.serial_stub_puts
                0x000000000002d0dc       0x10 drivers/serial/built-in.o
 .text.serial_stub_getc
                0x000000000002d0ec        0xc drivers/serial/built-in.o
                0x000000000002d0ec                serial_stub_getc
 .text.serial_stub_tstc
                0x000000000002d0f8        0xc drivers/serial/built-in.o
                0x000000000002d0f8                serial_stub_tstc
 .text.get_current
                0x000000000002d104       0x40 drivers/serial/built-in.o
 .text.serial_null
                0x000000000002d144        0x4 drivers/serial/built-in.o
                0x000000000002d144                jz_serial_initialize
                0x000000000002d144                bfin_serial_initialize
                0x000000000002d144                p3mx_serial_initialize
                0x000000000002d144                leon2_serial_initialize
                0x000000000002d144                leon3_serial_initialize
                0x000000000002d144                stm32_serial_initialize
                0x000000000002d144                amirix_serial_initialize
                0x000000000002d144                marvell_serial_initialize
                0x000000000002d144                cpci750_serial_initialize
                0x000000000002d144                ns16550_serial_initialize
                0x000000000002d144                asc_serial_initialize
                0x000000000002d144                sh_serial_initialize
                0x000000000002d144                oc_serial_initialize
                0x000000000002d144                mxs_auart_initialize
                0x000000000002d144                arm_dcc_initialize
                0x000000000002d144                bmw_serial_initialize
                0x000000000002d144                arc_serial_initialize
                0x000000000002d144                mcf_serial_initialize
                0x000000000002d144                lh7a40x_serial_initialize
                0x000000000002d144                evb64260_serial_initialize
                0x000000000002d144                lpc32xx_serial_initialize
                0x000000000002d144                max3100_serial_initialize
                0x000000000002d144                mpc85xx_serial_initialize
                0x000000000002d144                imx_serial_initialize
                0x000000000002d144                bfin_jtag_initialize
                0x000000000002d144                cogent_serial_initialize
                0x000000000002d144                clps7111_serial_initialize
                0x000000000002d144                ml2_serial_initialize
                0x000000000002d144                sandbox_serial_initialize
                0x000000000002d144                sconsole_serial_initialize
                0x000000000002d144                uartlite_serial_initialize
                0x000000000002d144                au1x00_serial_initialize
                0x000000000002d144                pxa_serial_initialize
                0x000000000002d144                atmel_serial_initialize
                0x000000000002d144                pl01x_serial_initialize
                0x000000000002d144                mpc512x_serial_initialize
                0x000000000002d144                s5p_serial_initialize
                0x000000000002d144                zynq_serial_initialize
                0x000000000002d144                sa1100_serial_initialize
                0x000000000002d144                mpc8260_scc_serial_initialize
                0x000000000002d144                mxc_serial_initialize
                0x000000000002d144                iop480_serial_initialize
                0x000000000002d144                mpc8xx_serial_initialize
                0x000000000002d144                mpc8260_smc_serial_initialize
                0x000000000002d144                mpc5xx_serial_initialize
 .text.serial_register
                0x000000000002d148       0x18 drivers/serial/built-in.o
                0x000000000002d148                serial_register
 .text.serial_stdio_init
                0x000000000002d160       0xa8 drivers/serial/built-in.o
                0x000000000002d160                serial_stdio_init
 .text.serial_assign
                0x000000000002d208       0x4c drivers/serial/built-in.o
                0x000000000002d208                serial_assign
 .text.serial_initialize
                0x000000000002d254       0xc8 drivers/serial/built-in.o
                0x000000000002d254                serial_initialize
 .text.serial_init
                0x000000000002d31c       0x20 drivers/serial/built-in.o
                0x000000000002d31c                serial_init
 .text.serial_setbrg
                0x000000000002d33c       0x14 drivers/serial/built-in.o
                0x000000000002d33c                serial_setbrg
 .text.on_baudrate
                0x000000000002d350       0xec drivers/serial/built-in.o
 .text.serial_getc
                0x000000000002d43c       0x14 drivers/serial/built-in.o
                0x000000000002d43c                serial_getc
 .text.serial_tstc
                0x000000000002d450       0x14 drivers/serial/built-in.o
                0x000000000002d450                serial_tstc
 .text.serial_putc
                0x000000000002d464       0x1c drivers/serial/built-in.o
                0x000000000002d464                serial_putc
 .text.serial_puts
                0x000000000002d480       0x1c drivers/serial/built-in.o
                0x000000000002d480                serial_puts
 .text.s3serial1_tstc
                0x000000000002d49c       0x14 drivers/serial/built-in.o
                0x000000000002d49c                s3serial1_tstc
 .text.s3serial2_getc
                0x000000000002d4b0       0x24 drivers/serial/built-in.o
                0x000000000002d4b0                s3serial2_getc
 .text._serial_setbrg
                0x000000000002d4d4       0x28 drivers/serial/built-in.o
 .text.s3serial0_setbrg
                0x000000000002d4fc        0x8 drivers/serial/built-in.o
                0x000000000002d4fc                s3serial0_setbrg
 .text.s3serial1_setbrg
                0x000000000002d504        0x8 drivers/serial/built-in.o
                0x000000000002d504                s3serial1_setbrg
 .text.s3serial2_setbrg
                0x000000000002d50c        0x8 drivers/serial/built-in.o
                0x000000000002d50c                s3serial2_setbrg
 .text.s3serial1_init
                0x000000000002d514       0x40 drivers/serial/built-in.o
                0x000000000002d514                s3serial1_init
 .text._serial_putc
                0x000000000002d554       0x30 drivers/serial/built-in.o
 .text.s3serial0_putc
                0x000000000002d584        0x8 drivers/serial/built-in.o
                0x000000000002d584                s3serial0_putc
 .text.s3serial1_putc
                0x000000000002d58c        0x8 drivers/serial/built-in.o
                0x000000000002d58c                s3serial1_putc
 .text.s3serial2_putc
                0x000000000002d594        0x8 drivers/serial/built-in.o
                0x000000000002d594                s3serial2_putc
 .text._serial_puts
                0x000000000002d59c       0x28 drivers/serial/built-in.o
 .text.s3serial0_puts
                0x000000000002d5c4        0x8 drivers/serial/built-in.o
                0x000000000002d5c4                s3serial0_puts
 .text.s3serial1_puts
                0x000000000002d5cc        0x8 drivers/serial/built-in.o
                0x000000000002d5cc                s3serial1_puts
 .text.s3serial2_puts
                0x000000000002d5d4        0x8 drivers/serial/built-in.o
                0x000000000002d5d4                s3serial2_puts
 .text.s3serial2_tstc
                0x000000000002d5dc       0x14 drivers/serial/built-in.o
                0x000000000002d5dc                s3serial2_tstc
 .text.s3serial0_tstc
                0x000000000002d5f0       0x10 drivers/serial/built-in.o
                0x000000000002d5f0                s3serial0_tstc
 .text.s3serial0_getc
                0x000000000002d600       0x20 drivers/serial/built-in.o
                0x000000000002d600                s3serial0_getc
 .text.s3serial1_getc
                0x000000000002d620       0x24 drivers/serial/built-in.o
                0x000000000002d620                s3serial1_getc
 .text.s3serial2_init
                0x000000000002d644       0x40 drivers/serial/built-in.o
                0x000000000002d644                s3serial2_init
 .text.s3serial0_init
                0x000000000002d684       0x3c drivers/serial/built-in.o
                0x000000000002d684                s3serial0_init
 .text.default_serial_console
                0x000000000002d6c0        0xc drivers/serial/built-in.o
                0x000000000002d6c0                default_serial_console
 .text.s3c24xx_serial_initialize
                0x000000000002d6cc       0x2c drivers/serial/built-in.o
                0x000000000002d6cc                s3c24xx_serial_initialize
 .text.roothub_a
                0x000000000002d6f8       0x48 drivers/usb/host/built-in.o
 .text.roothub_portstatus
                0x000000000002d740       0x58 drivers/usb/host/built-in.o
 .text.hc_reset.isra.3
                0x000000000002d798       0xb8 drivers/usb/host/built-in.o
 .text.urb_free_priv.constprop.10
                0x000000000002d850       0x40 drivers/usb/host/built-in.o
 .text.td_fill.isra.1.constprop.12
                0x000000000002d890       0x80 drivers/usb/host/built-in.o
 .text.sohci_submit_job
                0x000000000002d910      0x5d8 drivers/usb/host/built-in.o
                0x000000000002d910                sohci_submit_job
 .text.submit_common_msg
                0x000000000002dee8      0x514 drivers/usb/host/built-in.o
                0x000000000002dee8                submit_common_msg
 .text.submit_bulk_msg
                0x000000000002e3fc       0x1c drivers/usb/host/built-in.o
                0x000000000002e3fc                submit_bulk_msg
 .text.submit_control_msg
                0x000000000002e418      0x5b4 drivers/usb/host/built-in.o
                0x000000000002e418                submit_control_msg
 .text.submit_int_msg
                0x000000000002e9cc        0x8 drivers/usb/host/built-in.o
                0x000000000002e9cc                submit_int_msg
 .text.usb_lowlevel_init
                0x000000000002e9d4      0x230 drivers/usb/host/built-in.o
                0x000000000002e9d4                usb_lowlevel_init
 .text.usb_lowlevel_stop
                0x000000000002ec04       0x44 drivers/usb/host/built-in.o
                0x000000000002ec04                usb_lowlevel_stop
 .text.fs_probe_unsupported
                0x000000000002ec48       0x18 fs/built-in.o
 .text.fs_exists_unsupported
                0x000000000002ec60        0x8 fs/built-in.o
 .text.fs_size_unsupported
                0x000000000002ec68        0x8 fs/built-in.o
 .text.fs_write_unsupported
                0x000000000002ec70        0x8 fs/built-in.o
 .text.fs_close_unsupported
                0x000000000002ec78        0x4 fs/built-in.o
 .text.fs_uuid_unsupported
                0x000000000002ec7c        0x8 fs/built-in.o
 .text.fs_get_info
                0x000000000002ec84       0x48 fs/built-in.o
 .text.fs_close
                0x000000000002eccc       0x28 fs/built-in.o
 .text.fs_read_unsupported
                0x000000000002ecf4        0x8 fs/built-in.o
 .text.fs_ls_unsupported
                0x000000000002ecfc        0x8 fs/built-in.o
 .text.fs_set_blk_dev
                0x000000000002ed04       0xb4 fs/built-in.o
                0x000000000002ed04                fs_set_blk_dev
 .text.fs_ls    0x000000000002edb8       0x40 fs/built-in.o
                0x000000000002edb8                fs_ls
 .text.fs_exists
                0x000000000002edf8       0x38 fs/built-in.o
                0x000000000002edf8                fs_exists
 .text.fs_size  0x000000000002ee30       0x40 fs/built-in.o
                0x000000000002ee30                fs_size
 .text.fs_read  0x000000000002ee70       0xa4 fs/built-in.o
                0x000000000002ee70                fs_read
 .text.do_size  0x000000000002ef14       0x60 fs/built-in.o
                0x000000000002ef14                do_size
 .text.do_load  0x000000000002ef74      0x260 fs/built-in.o
                0x000000000002ef74                do_load
 .text.do_ls    0x000000000002f1d4       0x68 fs/built-in.o
                0x000000000002f1d4                do_ls
 .text.file_exists
                0x000000000002f23c       0x28 fs/built-in.o
                0x000000000002f23c                file_exists
 .text.get_fs   0x000000000002f264        0xc fs/built-in.o
                0x000000000002f264                get_fs
 .text.ext4fs_free_node
                0x000000000002f270       0x20 fs/built-in.o
                0x000000000002f270                ext4fs_free_node
 .text.ext4fs_read_file
                0x000000000002f290      0x3ac fs/built-in.o
                0x000000000002f290                ext4fs_read_file
 .text.ext4fs_ls
                0x000000000002f63c       0x78 fs/built-in.o
                0x000000000002f63c                ext4fs_ls
 .text.ext4fs_exists
                0x000000000002f6b4       0x1c fs/built-in.o
                0x000000000002f6b4                ext4fs_exists
 .text.ext4fs_size
                0x000000000002f6d0        0x4 fs/built-in.o
                0x000000000002f6d0                ext4fs_size
 .text.ext4fs_read
                0x000000000002f6d4       0x5c fs/built-in.o
                0x000000000002f6d4                ext4fs_read
 .text.ext4fs_probe
                0x000000000002f730       0x30 fs/built-in.o
                0x000000000002f730                ext4fs_probe
 .text.ext4_read_file
                0x000000000002f760       0x84 fs/built-in.o
                0x000000000002f760                ext4_read_file
 .text.ext4fs_uuid
                0x000000000002f7e4       0x1c fs/built-in.o
                0x000000000002f7e4                ext4fs_uuid
 .text.ext4fs_read_inode
                0x000000000002f800      0x134 fs/built-in.o
                0x000000000002f800                ext4fs_read_inode
 .text.read_allocated_block
                0x000000000002f934      0x918 fs/built-in.o
                0x000000000002f934                read_allocated_block
 .text.ext4fs_reinit_global
                0x000000000003024c       0xbc fs/built-in.o
                0x000000000003024c                ext4fs_reinit_global
 .text.ext4fs_close
                0x0000000000030308       0x60 fs/built-in.o
                0x0000000000030308                ext4fs_close
 .text.ext4fs_iterate_dir
                0x0000000000030368      0x2e4 fs/built-in.o
                0x0000000000030368                ext4fs_iterate_dir
 .text.ext4fs_find_file1
                0x000000000003064c      0x2bc fs/built-in.o
 .text.ext4fs_find_file
                0x0000000000030908       0x7c fs/built-in.o
                0x0000000000030908                ext4fs_find_file
 .text.ext4fs_open
                0x0000000000030984       0xac fs/built-in.o
                0x0000000000030984                ext4fs_open
 .text.ext4fs_mount
                0x0000000000030a30       0xc8 fs/built-in.o
                0x0000000000030a30                ext4fs_mount
 .text.ext4fs_set_blk_dev
                0x0000000000030af8       0x6c fs/built-in.o
                0x0000000000030af8                ext4fs_set_blk_dev
 .text.ext4fs_devread
                0x0000000000030b64      0x278 fs/built-in.o
                0x0000000000030b64                ext4fs_devread
 .text.ext4_read_superblock
                0x0000000000030ddc       0x38 fs/built-in.o
                0x0000000000030ddc                ext4_read_superblock
 .text.downcase
                0x0000000000030e14       0x30 fs/built-in.o
 .text.disk_read
                0x0000000000030e44       0x64 fs/built-in.o
 .text.dirdelim
                0x0000000000030ea8       0x38 fs/built-in.o
 .text.get_fatent
                0x0000000000030ee0      0x15c fs/built-in.o
 .text.mkcksum  0x000000000003103c       0x50 fs/built-in.o
 .text.get_cluster
                0x000000000003108c      0x170 fs/built-in.o
 .text.get_name
                0x00000000000311fc       0xac fs/built-in.o
 .text.read_bootsectandvi
                0x00000000000312a8      0x124 fs/built-in.o
 .text.slot2str
                0x00000000000313cc       0xbc fs/built-in.o
 .text.get_vfatname
                0x0000000000031488      0x1bc fs/built-in.o
 .text.fat_set_blk_dev
                0x0000000000031644       0xcc fs/built-in.o
                0x0000000000031644                fat_set_blk_dev
 .text.do_fat_read_at
                0x0000000000031710      0xcec fs/built-in.o
                0x0000000000031710                do_fat_read_at
 .text.do_fat_read
                0x00000000000323fc       0x40 fs/built-in.o
                0x00000000000323fc                do_fat_read
 .text.file_fat_detectfs
                0x000000000003243c      0x148 fs/built-in.o
                0x000000000003243c                file_fat_detectfs
 .text.file_fat_ls
                0x0000000000032584       0x2c fs/built-in.o
                0x0000000000032584                file_fat_ls
 .text.fat_exists
                0x00000000000325b0       0x48 fs/built-in.o
                0x00000000000325b0                fat_exists
 .text.fat_size
                0x00000000000325f8       0x3c fs/built-in.o
                0x00000000000325f8                fat_size
 .text.file_fat_read_at
                0x0000000000032634       0x68 fs/built-in.o
                0x0000000000032634                file_fat_read_at
 .text.fat_read_file
                0x000000000003269c       0x4c fs/built-in.o
                0x000000000003269c                fat_read_file
 .text.fat_close
                0x00000000000326e8        0x4 fs/built-in.o
                0x00000000000326e8                fat_close
 .text.gzip_decompress
                0x00000000000326ec       0x2c fs/built-in.o
 .text.compr_init
                0x0000000000032718       0xa4 fs/built-in.o
 .text.ubifs_findfile
                0x00000000000327bc      0x348 fs/built-in.o
 .text.kmemdup  0x0000000000032b04       0x30 fs/built-in.o
                0x0000000000032b04                kmemdup
 .text.ubifs_decompress
                0x0000000000032b34       0x90 fs/built-in.o
                0x0000000000032b34                ubifs_decompress
 .text.read_block
                0x0000000000032bc4      0x130 fs/built-in.o
 .text.ubifs_compressors_init
                0x0000000000032cf4       0x3c fs/built-in.o
                0x0000000000032cf4                ubifs_compressors_init
 .text.ubifs_set_blk_dev
                0x0000000000032d30       0x28 fs/built-in.o
                0x0000000000032d30                ubifs_set_blk_dev
 .text.ubifs_ls
                0x0000000000032d58      0x4f8 fs/built-in.o
                0x0000000000032d58                ubifs_ls
 .text.ubifs_exists
                0x0000000000033250       0x50 fs/built-in.o
                0x0000000000033250                ubifs_exists
 .text.ubifs_size
                0x00000000000332a0       0xa0 fs/built-in.o
                0x00000000000332a0                ubifs_size
 .text.ubifs_read
                0x0000000000033340      0x3e0 fs/built-in.o
                0x0000000000033340                ubifs_read
 .text.ubifs_close
                0x0000000000033720        0x4 fs/built-in.o
                0x0000000000033720                ubifs_close
 .text.ubifs_load
                0x0000000000033724       0x80 fs/built-in.o
                0x0000000000033724                ubifs_load
 .text.uboot_ubifs_umount
                0x00000000000337a4       0x44 fs/built-in.o
                0x00000000000337a4                uboot_ubifs_umount
 .text.ubifs_ro_mode
                0x00000000000337e8       0x34 fs/built-in.o
                0x00000000000337e8                ubifs_ro_mode
 .text.ubifs_leb_read
                0x000000000003381c       0x10 fs/built-in.o
                0x000000000003381c                ubifs_leb_read
 .text.ubifs_leb_unmap
                0x000000000003382c       0x44 fs/built-in.o
                0x000000000003382c                ubifs_leb_unmap
 .text.ubifs_is_mapped
                0x0000000000033870        0x8 fs/built-in.o
                0x0000000000033870                ubifs_is_mapped
 .text.ubifs_check_node
                0x0000000000033878      0x138 fs/built-in.o
                0x0000000000033878                ubifs_check_node
 .text.ubifs_pad
                0x00000000000339b0       0xf4 fs/built-in.o
                0x00000000000339b0                ubifs_pad
 .text.ubifs_wbuf_seek_nolock
                0x0000000000033aa4       0x5c fs/built-in.o
                0x0000000000033aa4                ubifs_wbuf_seek_nolock
 .text.ubifs_read_node
                0x0000000000033b00       0xcc fs/built-in.o
                0x0000000000033b00                ubifs_read_node
 .text.ubifs_read_node_wbuf
                0x0000000000033bcc      0x120 fs/built-in.o
                0x0000000000033bcc                ubifs_read_node_wbuf
 .text.ubifs_wbuf_init
                0x0000000000033cec       0xac fs/built-in.o
                0x0000000000033cec                ubifs_wbuf_init
 .text.ubifs_dirty_inode
                0x0000000000033d98       0x14 fs/built-in.o
 .text.sb_test  0x0000000000033dac       0x24 fs/built-in.o
 .text.sb_set   0x0000000000033dd0        0xc fs/built-in.o
 .text.free_wbufs
                0x0000000000033ddc       0x64 fs/built-in.o
 .text.free_orphans
                0x0000000000033e40       0x8c fs/built-in.o
 .text.kill_ubifs_super
                0x0000000000033ecc        0x8 fs/built-in.o
 .text.ubifs_alloc_inode
                0x0000000000033ed4       0x34 fs/built-in.o
 .text.bud_wbuf_callback
                0x0000000000033f08       0x1c fs/built-in.o
 .text.iget_locked
                0x0000000000033f24       0x50 fs/built-in.o
                0x0000000000033f24                iget_locked
 .text.ubifs_iput
                0x0000000000033f74       0x2c fs/built-in.o
                0x0000000000033f74                ubifs_iput
 .text.iput     0x0000000000033fa0       0x58 fs/built-in.o
                0x0000000000033fa0                iput
 .text.clear_nlink
                0x0000000000033ff8       0x38 fs/built-in.o
                0x0000000000033ff8                clear_nlink
 .text.set_nlink
                0x0000000000034030       0x40 fs/built-in.o
                0x0000000000034030                set_nlink
 .text.ubifs_iget
                0x0000000000034070      0x434 fs/built-in.o
                0x0000000000034070                ubifs_iget
 .text.ubifs_umount
                0x00000000000344a4       0xb4 fs/built-in.o
                0x00000000000344a4                ubifs_umount
 .text.sget     0x0000000000034558       0xa4 fs/built-in.o
                0x0000000000034558                sget
 .text.ubifs_mount
                0x00000000000345fc      0xe00 fs/built-in.o
 .text.ubifs_init
                0x00000000000353fc       0x24 fs/built-in.o
                0x00000000000353fc                ubifs_init
 .text.uboot_ubifs_mount
                0x0000000000035420       0x64 fs/built-in.o
                0x0000000000035420                uboot_ubifs_mount
 .text.key_r5_hash
                0x0000000000035484       0x40 fs/built-in.o
 .text.key_test_hash
                0x00000000000354c4       0x40 fs/built-in.o
 .text.ubifs_read_sb_node
                0x0000000000035504       0x6c fs/built-in.o
                0x0000000000035504                ubifs_read_sb_node
 .text.ubifs_read_superblock
                0x0000000000035570      0x604 fs/built-in.o
                0x0000000000035570                ubifs_read_superblock
 .text.ubifs_read_master
                0x0000000000035b74      0xcdc fs/built-in.o
                0x0000000000035b74                ubifs_read_master
 .text.do_calc_lpt_geom
                0x0000000000036850      0x424 fs/built-in.o
 .text.calc_nnode_num_from_parent
                0x0000000000036c74       0x30 fs/built-in.o
 .text.validate_nnode
                0x0000000000036ca4       0xcc fs/built-in.o
 .text.update_cats
                0x0000000000036d70       0x40 fs/built-in.o
 .text.calc_pnode_num_from_parent.isra.0
                0x0000000000036db0       0x38 fs/built-in.o
 .text.validate_pnode
                0x0000000000036de8       0xb0 fs/built-in.o
 .text.ubifs_calc_lpt_geom
                0x0000000000036e98       0x9c fs/built-in.o
                0x0000000000036e98                ubifs_calc_lpt_geom
 .text.ubifs_unpack_bits
                0x0000000000036f34      0x138 fs/built-in.o
                0x0000000000036f34                ubifs_unpack_bits
 .text.check_lpt_crc.isra.2
                0x000000000003706c       0x54 fs/built-in.o
 .text.unpack_pnode
                0x00000000000370c0       0xf0 fs/built-in.o
 .text.ubifs_add_lpt_dirt
                0x00000000000371b0       0x30 fs/built-in.o
                0x00000000000371b0                ubifs_add_lpt_dirt
 .text.ubifs_add_nnode_dirt
                0x00000000000371e0       0x60 fs/built-in.o
                0x00000000000371e0                ubifs_add_nnode_dirt
 .text.dirty_cow_nnode
                0x0000000000037240      0x100 fs/built-in.o
 .text.ubifs_unpack_nnode
                0x0000000000037340       0xc4 fs/built-in.o
                0x0000000000037340                ubifs_unpack_nnode
 .text.ubifs_read_nnode
                0x0000000000037404      0x144 fs/built-in.o
                0x0000000000037404                ubifs_read_nnode
 .text.ubifs_get_nnode
                0x0000000000037548       0x30 fs/built-in.o
                0x0000000000037548                ubifs_get_nnode
 .text.ubifs_get_pnode
                0x0000000000037578      0x1c0 fs/built-in.o
                0x0000000000037578                ubifs_get_pnode
 .text.ubifs_lpt_lookup_dirty
                0x0000000000037738      0x204 fs/built-in.o
                0x0000000000037738                ubifs_lpt_lookup_dirty
 .text.ubifs_lpt_init
                0x000000000003793c      0x200 fs/built-in.o
                0x000000000003793c                ubifs_lpt_init
 .text.ubifs_lpt_free
                0x0000000000037b3c      0x1bc fs/built-in.o
                0x0000000000037b3c                ubifs_lpt_free
 .text.ubifs_scan_a_node
                0x0000000000037cf8      0x14c fs/built-in.o
                0x0000000000037cf8                ubifs_scan_a_node
 .text.ubifs_start_scan
                0x0000000000037e44       0x8c fs/built-in.o
                0x0000000000037e44                ubifs_start_scan
 .text.ubifs_end_scan
                0x0000000000037ed0       0x1c fs/built-in.o
                0x0000000000037ed0                ubifs_end_scan
 .text.ubifs_add_snod
                0x0000000000037eec       0xec fs/built-in.o
                0x0000000000037eec                ubifs_add_snod
 .text.ubifs_scanned_corruption
                0x0000000000037fd8        0x4 fs/built-in.o
                0x0000000000037fd8                ubifs_scanned_corruption
 .text.ubifs_scan_destroy
                0x0000000000037fdc       0x44 fs/built-in.o
                0x0000000000037fdc                ubifs_scan_destroy
 .text.ubifs_scan
                0x0000000000038020      0x17c fs/built-in.o
                0x0000000000038020                ubifs_scan
 .text.get_heap_comp_val
                0x000000000003819c       0x2c fs/built-in.o
 .text.move_up_lpt_heap.isra.0
                0x00000000000381c8       0x74 fs/built-in.o
 .text.adjust_lpt_heap.isra.1
                0x000000000003823c      0x18c fs/built-in.o
 .text.remove_from_lpt_heap.isra.3
                0x00000000000383c8       0x60 fs/built-in.o
 .text.ubifs_add_to_cat
                0x0000000000038428      0x1b0 fs/built-in.o
                0x0000000000038428                ubifs_add_to_cat
 .text.ubifs_replace_cat
                0x00000000000385d8       0x60 fs/built-in.o
                0x00000000000385d8                ubifs_replace_cat
 .text.ubifs_categorize_lprops
                0x0000000000038638       0xa8 fs/built-in.o
                0x0000000000038638                ubifs_categorize_lprops
 .text.ubifs_calc_dark
                0x00000000000386e0       0x24 fs/built-in.o
                0x00000000000386e0                ubifs_calc_dark
 .text.ubifs_change_lp
                0x0000000000038704      0x380 fs/built-in.o
                0x0000000000038704                ubifs_change_lp
 .text.ubifs_change_one_lp
                0x0000000000038a84       0x5c fs/built-in.o
                0x0000000000038a84                ubifs_change_one_lp
 .text.ubifs_update_one_lp
                0x0000000000038ae0       0x60 fs/built-in.o
                0x0000000000038ae0                ubifs_update_one_lp
 .text.insert_zbranch
                0x0000000000038b40       0xd8 fs/built-in.o
 .text.insert_old_idx
                0x0000000000038c18       0xa8 fs/built-in.o
 .text.get_znode
                0x0000000000038cc0       0x38 fs/built-in.o
 .text.tnc_prev
                0x0000000000038cf8       0x94 fs/built-in.o
 .text.tnc_next
                0x0000000000038d8c       0x9c fs/built-in.o
 .text.fallible_read_node
                0x0000000000038e28      0x130 fs/built-in.o
 .text.lnc_free.isra.0
                0x0000000000038f58       0x28 fs/built-in.o
 .text.key_in_range.isra.2
                0x0000000000038f80       0x5c fs/built-in.o
 .text.correct_parent_keys.isra.3
                0x0000000000038fdc       0x70 fs/built-in.o
 .text.fallible_matches_name
                0x000000000003904c       0xf0 fs/built-in.o
 .text.fallible_resolve_collision
                0x000000000003913c      0x284 fs/built-in.o
 .text.tnc_read_node_nm
                0x00000000000393c0       0x88 fs/built-in.o
 .text.tnc_insert.constprop.8
                0x0000000000039448      0x450 fs/built-in.o
 .text.dirty_cow_znode
                0x0000000000039898      0x21c fs/built-in.o
 .text.dirty_cow_bottom_up
                0x0000000000039ab4      0x108 fs/built-in.o
 .text.lookup_level0_dirty
                0x0000000000039bbc      0x1c0 fs/built-in.o
 .text.matches_name
                0x0000000000039d7c       0xe4 fs/built-in.o
 .text.resolve_collision
                0x0000000000039e60      0x1c8 fs/built-in.o
 .text.insert_old_idx_znode
                0x000000000003a028       0x50 fs/built-in.o
                0x000000000003a028                insert_old_idx_znode
 .text.tnc_delete
                0x000000000003a078      0x2d8 fs/built-in.o
 .text.destroy_old_idx
                0x000000000003a350       0x40 fs/built-in.o
                0x000000000003a350                destroy_old_idx
 .text.ubifs_lookup_level0
                0x000000000003a390      0x160 fs/built-in.o
                0x000000000003a390                ubifs_lookup_level0
 .text.ubifs_tnc_locate
                0x000000000003a4f0      0x11c fs/built-in.o
                0x000000000003a4f0                ubifs_tnc_locate
 .text.ubifs_tnc_add
                0x000000000003a60c       0xd4 fs/built-in.o
                0x000000000003a60c                ubifs_tnc_add
 .text.ubifs_tnc_remove
                0x000000000003a6e0       0x54 fs/built-in.o
                0x000000000003a6e0                ubifs_tnc_remove
 .text.ubifs_tnc_remove_nm
                0x000000000003a734       0xd8 fs/built-in.o
                0x000000000003a734                ubifs_tnc_remove_nm
 .text.ubifs_tnc_add_nm
                0x000000000003a80c      0x1c8 fs/built-in.o
                0x000000000003a80c                ubifs_tnc_add_nm
 .text.ubifs_tnc_remove_range
                0x000000000003a9d4      0x208 fs/built-in.o
                0x000000000003a9d4                ubifs_tnc_remove_range
 .text.ubifs_tnc_next_ent
                0x000000000003abdc      0x114 fs/built-in.o
                0x000000000003abdc                ubifs_tnc_next_ent
 .text.ubifs_tnc_remove_ino
                0x000000000003acf0      0x12c fs/built-in.o
                0x000000000003acf0                ubifs_tnc_remove_ino
 .text.ubifs_tnc_close
                0x000000000003ae1c       0x94 fs/built-in.o
                0x000000000003ae1c                ubifs_tnc_close
 .text.ubifs_search_zbranch
                0x000000000003aeb0       0x80 fs/built-in.o
                0x000000000003aeb0                ubifs_search_zbranch
 .text.ubifs_tnc_postorder_first
                0x000000000003af30       0x4c fs/built-in.o
                0x000000000003af30                ubifs_tnc_postorder_first
 .text.ubifs_tnc_postorder_next
                0x000000000003af7c       0x48 fs/built-in.o
                0x000000000003af7c                ubifs_tnc_postorder_next
 .text.ubifs_destroy_tnc_subtree
                0x000000000003afc4       0x90 fs/built-in.o
                0x000000000003afc4                ubifs_destroy_tnc_subtree
 .text.ubifs_load_znode
                0x000000000003b054      0x2f4 fs/built-in.o
                0x000000000003b054                ubifs_load_znode
 .text.ubifs_tnc_read_node
                0x000000000003b348       0x94 fs/built-in.o
                0x000000000003b348                ubifs_tnc_read_node
 .text.ubifs_dump_inode
                0x000000000003b3dc        0x4 fs/built-in.o
                0x000000000003b3dc                ubifs_dump_inode
 .text.ubifs_dump_node
                0x000000000003b3e0        0x4 fs/built-in.o
                0x000000000003b3e0                ubifs_dump_node
 .text.ubifs_dump_znode
                0x000000000003b3e4        0x4 fs/built-in.o
                0x000000000003b3e4                ubifs_dump_znode
 .text.ubifs_dump_pnode
                0x000000000003b3e8        0x4 fs/built-in.o
                0x000000000003b3e8                ubifs_dump_pnode
 .text.dbg_check_dir
                0x000000000003b3ec        0x8 fs/built-in.o
                0x000000000003b3ec                dbg_check_dir
 .text.dbg_debugfs_exit_fs
                0x000000000003b3f4        0x4 fs/built-in.o
                0x000000000003b3f4                dbg_debugfs_exit_fs
 .text.ubifs_debugging_init
                0x000000000003b3f8        0x8 fs/built-in.o
                0x000000000003b3f8                ubifs_debugging_init
 .text.ubifs_debugging_exit
                0x000000000003b400        0x4 fs/built-in.o
                0x000000000003b400                ubifs_debugging_exit
 .text.dbg_check_filesystem
                0x000000000003b404        0x8 fs/built-in.o
                0x000000000003b404                dbg_check_filesystem
 .text.dbg_debugfs_init_fs
                0x000000000003b40c        0x8 fs/built-in.o
                0x000000000003b40c                dbg_debugfs_init_fs
 .text.dbg_check_tnc
                0x000000000003b414        0x8 fs/built-in.o
                0x000000000003b414                dbg_check_tnc
 .text.dbg_check_idx_size
                0x000000000003b41c        0x8 fs/built-in.o
                0x000000000003b41c                dbg_check_idx_size
 .text.crc16    0x000000000003b424       0x34 fs/built-in.o
                0x000000000003b424                crc16
 .text.ubifs_calc_min_idx_lebs
                0x000000000003b458       0x98 fs/built-in.o
                0x000000000003b458                ubifs_calc_min_idx_lebs
 .text.ubifs_reported_space
                0x000000000003b4f0       0x78 fs/built-in.o
                0x000000000003b4f0                ubifs_reported_space
 .text.ubifs_search_bud
                0x000000000003b568       0x34 fs/built-in.o
                0x000000000003b568                ubifs_search_bud
 .text.ubifs_get_wbuf
                0x000000000003b59c       0x4c fs/built-in.o
                0x000000000003b59c                ubifs_get_wbuf
 .text.ubifs_add_bud
                0x000000000003b5e8       0xb0 fs/built-in.o
                0x000000000003b5e8                ubifs_add_bud
 .text.ubifs_clear_orphans
                0x000000000003b698       0x48 fs/built-in.o
                0x000000000003b698                ubifs_clear_orphans
 .text.ubifs_mount_orphans
                0x000000000003b6e0      0x3c0 fs/built-in.o
                0x000000000003b6e0                ubifs_mount_orphans
 .text.is_empty
                0x000000000003baa0       0x2c fs/built-in.o
 .text.find_ino
                0x000000000003bacc       0x2c fs/built-in.o
 .text.get_master_node
                0x000000000003baf8      0x1fc fs/built-in.o
 .text.add_ino  0x000000000003bcf4       0xa4 fs/built-in.o
 .text.ubifs_recover_master_node
                0x000000000003bd98      0x248 fs/built-in.o
                0x000000000003bd98                ubifs_recover_master_node
 .text.ubifs_recover_leb
                0x000000000003bfe0      0x458 fs/built-in.o
                0x000000000003bfe0                ubifs_recover_leb
 .text.ubifs_recover_log_leb
                0x000000000003c438      0x238 fs/built-in.o
                0x000000000003c438                ubifs_recover_log_leb
 .text.ubifs_destroy_size_tree
                0x000000000003c670       0x50 fs/built-in.o
                0x000000000003c670                ubifs_destroy_size_tree
 .text.ubifs_recover_size_accum
                0x000000000003c6c0      0x114 fs/built-in.o
                0x000000000003c6c0                ubifs_recover_size_accum
 .text.ubifs_recover_size
                0x000000000003c7d4      0x190 fs/built-in.o
                0x000000000003c7d4                ubifs_recover_size
 .text.replay_entries_cmp
                0x000000000003c964       0x2c fs/built-in.o
 .text.insert_node
                0x000000000003c990       0xe4 fs/built-in.o
 .text.ubifs_validate_entry
                0x000000000003ca74       0xf0 fs/built-in.o
                0x000000000003ca74                ubifs_validate_entry
 .text.ubifs_replay_journal
                0x000000000003cb64      0xe68 fs/built-in.o
                0x000000000003cb64                ubifs_replay_journal
 .text.ubifs_destroy_idx_gc
                0x000000000003d9cc       0x48 fs/built-in.o
                0x000000000003d9cc                ubifs_destroy_idx_gc
 .text.yaffs_alloc_raw_tnode
                0x000000000003da14      0x150 fs/built-in.o
                0x000000000003da14                yaffs_alloc_raw_tnode
 .text.yaffs_free_raw_tnode
                0x000000000003db64       0x64 fs/built-in.o
                0x000000000003db64                yaffs_free_raw_tnode
 .text.yaffs_alloc_raw_obj
                0x000000000003dbc8      0x13c fs/built-in.o
                0x000000000003dbc8                yaffs_alloc_raw_obj
 .text.yaffs_free_raw_obj
                0x000000000003dd04       0x6c fs/built-in.o
                0x000000000003dd04                yaffs_free_raw_obj
 .text.yaffs_deinit_raw_tnodes_and_objs
                0x000000000003dd70       0xdc fs/built-in.o
                0x000000000003dd70                yaffs_deinit_raw_tnodes_and_objs
 .text.yaffs_init_raw_tnodes_and_objs
                0x000000000003de4c       0x94 fs/built-in.o
                0x000000000003de4c                yaffs_init_raw_tnodes_and_objs
 .text.yaffs_load_attribs
                0x000000000003dee0       0x34 fs/built-in.o
                0x000000000003dee0                yaffs_load_attribs
 .text.yaffs_load_attribs_oh
                0x000000000003df14       0x34 fs/built-in.o
                0x000000000003df14                yaffs_load_attribs_oh
 .text.yaffs_attribs_init
                0x000000000003df48       0x34 fs/built-in.o
                0x000000000003df48                yaffs_attribs_init
 .text.yaffs_load_current_time
                0x000000000003df7c       0x24 fs/built-in.o
                0x000000000003df7c                yaffs_load_current_time
 .text.yaffs_verify_chunk_bit_id
                0x000000000003dfa0       0x7c fs/built-in.o
                0x000000000003dfa0                yaffs_verify_chunk_bit_id
 .text.yaffs_clear_chunk_bits
                0x000000000003e01c       0x80 fs/built-in.o
                0x000000000003e01c                yaffs_clear_chunk_bits
 .text.yaffs_clear_chunk_bit
                0x000000000003e09c       0xb0 fs/built-in.o
                0x000000000003e09c                yaffs_clear_chunk_bit
 .text.yaffs_set_chunk_bit
                0x000000000003e14c       0xb0 fs/built-in.o
                0x000000000003e14c                yaffs_set_chunk_bit
 .text.yaffs_check_chunk_bit
                0x000000000003e1fc       0xa8 fs/built-in.o
                0x000000000003e1fc                yaffs_check_chunk_bit
 .text.yaffs_still_some_chunks
                0x000000000003e2a4       0xa0 fs/built-in.o
                0x000000000003e2a4                yaffs_still_some_chunks
 .text.yaffs_count_chunk_bits
                0x000000000003e344       0xc0 fs/built-in.o
                0x000000000003e344                yaffs_count_chunk_bits
 .text.yaffs_error_str
                0x000000000003e404       0x30 fs/built-in.o
 .text.yaffsfs_SetError
                0x000000000003e434       0x10 fs/built-in.o
                0x000000000003e434                yaffsfs_SetError
 .text.yaffsfs_Lock
                0x000000000003e444        0x4 fs/built-in.o
                0x000000000003e444                yaffsfs_Lock
 .text.yaffsfs_Unlock
                0x000000000003e448        0x4 fs/built-in.o
                0x000000000003e448                yaffsfs_Unlock
 .text.yaffsfs_CurrentTime
                0x000000000003e44c        0x8 fs/built-in.o
                0x000000000003e44c                yaffsfs_CurrentTime
 .text.cmd_yaffs_tracemask
                0x000000000003e454       0x20 fs/built-in.o
                0x000000000003e454                cmd_yaffs_tracemask
 .text.cmd_yaffs_devconfig
                0x000000000003e474      0x2b4 fs/built-in.o
                0x000000000003e474                cmd_yaffs_devconfig
 .text.cmd_yaffs_dev_ls
                0x000000000003e728       0xa4 fs/built-in.o
                0x000000000003e728                cmd_yaffs_dev_ls
 .text.make_a_file
                0x000000000003e7cc       0x88 fs/built-in.o
                0x000000000003e7cc                make_a_file
 .text.read_a_file
                0x000000000003e854       0x84 fs/built-in.o
                0x000000000003e854                read_a_file
 .text.cmd_yaffs_mount
                0x000000000003e8d8       0x40 fs/built-in.o
                0x000000000003e8d8                cmd_yaffs_mount
 .text.cmd_yaffs_umount
                0x000000000003e918       0x40 fs/built-in.o
                0x000000000003e918                cmd_yaffs_umount
 .text.cmd_yaffs_write_file
                0x000000000003e958        0x4 fs/built-in.o
                0x000000000003e958                cmd_yaffs_write_file
 .text.cmd_yaffs_read_file
                0x000000000003e95c        0x4 fs/built-in.o
                0x000000000003e95c                cmd_yaffs_read_file
 .text.cmd_yaffs_mread_file
                0x000000000003e960       0x7c fs/built-in.o
                0x000000000003e960                cmd_yaffs_mread_file
 .text.cmd_yaffs_mwrite_file
                0x000000000003e9dc       0x58 fs/built-in.o
                0x000000000003e9dc                cmd_yaffs_mwrite_file
 .text.cmd_yaffs_ls
                0x000000000003ea34      0x104 fs/built-in.o
                0x000000000003ea34                cmd_yaffs_ls
 .text.cmd_yaffs_mkdir
                0x000000000003eb38       0x2c fs/built-in.o
                0x000000000003eb38                cmd_yaffs_mkdir
 .text.cmd_yaffs_rmdir
                0x000000000003eb64       0x28 fs/built-in.o
                0x000000000003eb64                cmd_yaffs_rmdir
 .text.cmd_yaffs_rm
                0x000000000003eb8c       0x28 fs/built-in.o
                0x000000000003eb8c                cmd_yaffs_rm
 .text.cmd_yaffs_mv
                0x000000000003ebb4       0x34 fs/built-in.o
                0x000000000003ebb4                cmd_yaffs_mv
 .text.yaffs_checkpt_erase
                0x000000000003ebe8      0x164 fs/built-in.o
 .text.yaffs2_checkpt_flush_buffer
                0x000000000003ed4c      0x284 fs/built-in.o
 .text.yaffs2_checkpt_open
                0x000000000003efd0      0x160 fs/built-in.o
                0x000000000003efd0                yaffs2_checkpt_open
 .text.yaffs2_get_checkpt_sum
                0x000000000003f130       0x18 fs/built-in.o
                0x000000000003f130                yaffs2_get_checkpt_sum
 .text.yaffs2_checkpt_wr
                0x000000000003f148       0xc0 fs/built-in.o
                0x000000000003f148                yaffs2_checkpt_wr
 .text.yaffs2_checkpt_rd
                0x000000000003f208      0x270 fs/built-in.o
                0x000000000003f208                yaffs2_checkpt_rd
 .text.yaffs_checkpt_close
                0x000000000003f478      0x104 fs/built-in.o
                0x000000000003f478                yaffs_checkpt_close
 .text.yaffs2_checkpt_invalidate_stream
                0x000000000003f57c       0x34 fs/built-in.o
                0x000000000003f57c                yaffs2_checkpt_invalidate_stream
 .text.yaffs_ecc_calc
                0x000000000003f5b0      0x108 fs/built-in.o
                0x000000000003f5b0                yaffs_ecc_calc
 .text.yaffs_ecc_correct
                0x000000000003f6b8      0x184 fs/built-in.o
                0x000000000003f6b8                yaffs_ecc_correct
 .text.yaffs_ecc_calc_other
                0x000000000003f83c       0x5c fs/built-in.o
                0x000000000003f83c                yaffs_ecc_calc_other
 .text.yaffs_ecc_correct_other
                0x000000000003f898      0x1c0 fs/built-in.o
                0x000000000003f898                yaffs_ecc_correct_other
 .text.yaffsfs_HandleToFileDes
                0x000000000003fa58       0x4c fs/built-in.o
 .text.yaffsfs_HandleToObject
                0x000000000003faa4       0x60 fs/built-in.o
 .text.yaffsfs_GetHandle
                0x000000000003fb04       0x3c fs/built-in.o
 .text.yaffsfs_TooManyObjects
                0x000000000003fb40       0x24 fs/built-in.o
 .text.yaffsfs_IsDevBusy
                0x000000000003fb64       0x44 fs/built-in.o
 .text.yaffsfs_SetDirRewound
                0x000000000003fba8       0x4c fs/built-in.o
 .text.yaffsfs_DirAdvance
                0x000000000003fbf4       0x5c fs/built-in.o
 .text.yaffsfs_RemoveObjectCallback
                0x000000000003fc50       0x58 fs/built-in.o
 .text.yaffsfs_NewHandle
                0x000000000003fca8       0x80 fs/built-in.o
 .text.yaffsfs_FindInodeIdForObject
                0x000000000003fd28       0x5c fs/built-in.o
 .text.yaffsfs_DoStat
                0x000000000003fd84      0x114 fs/built-in.o
 .text.yaffsfs_PutInode.part.1
                0x000000000003fe98       0x54 fs/built-in.o
 .text.yaffsfs_PutHandle
                0x000000000003feec       0xdc fs/built-in.o
 .text.yaffsfs_IsPathDivider
                0x000000000003ffc8       0x2c fs/built-in.o
                0x000000000003ffc8                yaffsfs_IsPathDivider
 .text.yaffsfs_CheckPath
                0x000000000003fff4       0x48 fs/built-in.o
 .text.yaffsfs_FindDevice
                0x000000000004003c      0x178 fs/built-in.o
 .text.yaffsfs_FindMountPoint
                0x00000000000401b4       0x3c fs/built-in.o
 .text.yaffsfs_FollowLink
                0x00000000000401f0       0x9c fs/built-in.o
 .text.yaffsfs_DoFindDirectory
                0x000000000004028c      0x170 fs/built-in.o
 .text.yaffsfs_FindObject
                0x00000000000403fc       0x5c fs/built-in.o
 .text.yaffsfs_DoStatOrLStat
                0x0000000000040458      0x11c fs/built-in.o
 .text.yaffsfs_alt_dir_path
                0x0000000000040574       0x98 fs/built-in.o
 .text.yaffs_open_sharing
                0x000000000004060c      0x5f0 fs/built-in.o
                0x000000000004060c                yaffs_open_sharing
 .text.yaffs_open
                0x0000000000040bfc        0x8 fs/built-in.o
                0x0000000000040bfc                yaffs_open
 .text.yaffs_close
                0x0000000000040c04       0x6c fs/built-in.o
                0x0000000000040c04                yaffs_close
 .text.yaffsfs_do_read
                0x0000000000040c70      0x200 fs/built-in.o
                0x0000000000040c70                yaffsfs_do_read
 .text.yaffs_read
                0x0000000000040e70       0x20 fs/built-in.o
                0x0000000000040e70                yaffs_read
 .text.yaffsfs_do_write
                0x0000000000040e90      0x238 fs/built-in.o
                0x0000000000040e90                yaffsfs_do_write
 .text.yaffs_write
                0x00000000000410c8       0x20 fs/built-in.o
                0x00000000000410c8                yaffs_write
 .text.yaffsfs_DoUnlink
                0x00000000000410e8      0x188 fs/built-in.o
                0x00000000000410e8                yaffsfs_DoUnlink
 .text.yaffs_unlink
                0x0000000000041270        0x8 fs/built-in.o
                0x0000000000041270                yaffs_unlink
 .text.yaffs_rename
                0x0000000000041278      0x2a0 fs/built-in.o
                0x0000000000041278                yaffs_rename
 .text.yaffs_stat
                0x0000000000041518        0x8 fs/built-in.o
                0x0000000000041518                yaffs_stat
 .text.yaffs_lstat
                0x0000000000041520        0x8 fs/built-in.o
                0x0000000000041520                yaffs_lstat
 .text.yaffs_mkdir
                0x0000000000041528      0x160 fs/built-in.o
                0x0000000000041528                yaffs_mkdir
 .text.yaffs_rmdir
                0x0000000000041688       0x70 fs/built-in.o
                0x0000000000041688                yaffs_rmdir
 .text.yaffs_mount_common
                0x00000000000416f8      0x174 fs/built-in.o
                0x00000000000416f8                yaffs_mount_common
 .text.yaffs_mount
                0x000000000004186c        0xc fs/built-in.o
                0x000000000004186c                yaffs_mount
 .text.yaffs_unmount2
                0x0000000000041878      0x16c fs/built-in.o
                0x0000000000041878                yaffs_unmount2
 .text.yaffs_unmount
                0x00000000000419e4        0x8 fs/built-in.o
                0x00000000000419e4                yaffs_unmount
 .text.yaffs_freespace
                0x00000000000419ec       0x88 fs/built-in.o
                0x00000000000419ec                yaffs_freespace
 .text.yaffs_add_device
                0x0000000000041a74       0x58 fs/built-in.o
                0x0000000000041a74                yaffs_add_device
 .text.yaffs_dev_rewind
                0x0000000000041acc       0x1c fs/built-in.o
                0x0000000000041acc                yaffs_dev_rewind
 .text.yaffs_next_dev
                0x0000000000041ae8       0x30 fs/built-in.o
                0x0000000000041ae8                yaffs_next_dev
 .text.yaffs_opendir
                0x0000000000041b18      0x180 fs/built-in.o
                0x0000000000041b18                yaffs_opendir
 .text.yaffs_readdir
                0x0000000000041c98       0xd0 fs/built-in.o
                0x0000000000041c98                yaffs_readdir
 .text.yaffs_closedir
                0x0000000000041d68       0x54 fs/built-in.o
                0x0000000000041d68                yaffs_closedir
 .text.yaffs_calc_name_sum
                0x0000000000041dbc       0x48 fs/built-in.o
 .text.yaffs_grab_chunk_worker
                0x0000000000041e04       0x38 fs/built-in.o
 .text.yaffs_find_chunk_cache
                0x0000000000041e3c       0x64 fs/built-in.o
 .text.yaffs_invalidate_whole_cache
                0x0000000000041ea0       0x44 fs/built-in.o
 .text.yaffs_deinit_blocks
                0x0000000000041ee4       0x70 fs/built-in.o
 .text.unlikely.yaffs_init_blocks
                0x0000000000041f54      0x114 fs/built-in.o
 .text.yaffs_free_tnode
                0x0000000000042068       0x24 fs/built-in.o
 .text.yaffs_prune_worker
                0x000000000004208c       0xdc fs/built-in.o
 .text.yaffs_find_chunk_in_group
                0x0000000000042168       0xc8 fs/built-in.o
 .text.yaffs_remove_obj_from_dir
                0x0000000000042230       0x68 fs/built-in.o
 .text.yaffs_free_obj
                0x0000000000042298      0x124 fs/built-in.o
 .text.yaffs_addr_to_chunk
                0x00000000000423bc       0x54 fs/built-in.o
                0x00000000000423bc                yaffs_addr_to_chunk
 .text.yaffs_get_temp_buffer
                0x0000000000042410       0x90 fs/built-in.o
                0x0000000000042410                yaffs_get_temp_buffer
 .text.yaffs_release_temp_buffer
                0x00000000000424a0       0x88 fs/built-in.o
                0x00000000000424a0                yaffs_release_temp_buffer
 .text.yaffs_handle_chunk_error
                0x0000000000042528       0x64 fs/built-in.o
                0x0000000000042528                yaffs_handle_chunk_error
 .text.yaffs_check_ff
                0x000000000004258c       0x28 fs/built-in.o
                0x000000000004258c                yaffs_check_ff
 .text.yaffs_check_chunk_erased
                0x00000000000425b4       0xa0 fs/built-in.o
 .text.yaffs_check_alloc_available
                0x0000000000042654       0x34 fs/built-in.o
                0x0000000000042654                yaffs_check_alloc_available
 .text.yaffs_skip_rest_of_block
                0x0000000000042688       0xa0 fs/built-in.o
                0x0000000000042688                yaffs_skip_rest_of_block
 .text.yaffs_set_obj_name
                0x0000000000042728       0x64 fs/built-in.o
                0x0000000000042728                yaffs_set_obj_name
 .text.yaffs_set_obj_name_from_oh
                0x000000000004278c        0x8 fs/built-in.o
                0x000000000004278c                yaffs_set_obj_name_from_oh
 .text.yaffs_get_tnode
                0x0000000000042794       0x3c fs/built-in.o
                0x0000000000042794                yaffs_get_tnode
 .text.yaffs_load_tnode_0
                0x00000000000427d0       0x6c fs/built-in.o
                0x00000000000427d0                yaffs_load_tnode_0
 .text.yaffs_get_group_base
                0x000000000004283c       0x4c fs/built-in.o
                0x000000000004283c                yaffs_get_group_base
 .text.yaffs_soft_del_worker
                0x0000000000042888      0x1bc fs/built-in.o
 .text.yaffs_find_tnode_0
                0x0000000000042a44       0x78 fs/built-in.o
                0x0000000000042a44                yaffs_find_tnode_0
 .text.yaffs_find_chunk_in_file
                0x0000000000042abc       0x64 fs/built-in.o
 .text.yaffs_rd_data_obj
                0x0000000000042b20       0x64 fs/built-in.o
 .text.yaffs_add_find_tnode_0
                0x0000000000042b84      0x17c fs/built-in.o
                0x0000000000042b84                yaffs_add_find_tnode_0
 .text.yaffs_add_obj_to_dir
                0x0000000000042d00      0x124 fs/built-in.o
                0x0000000000042d00                yaffs_add_obj_to_dir
 .text.yaffs_find_by_number
                0x0000000000042e24       0x5c fs/built-in.o
                0x0000000000042e24                yaffs_find_by_number
 .text.yaffs_new_obj
                0x0000000000042e80      0x29c fs/built-in.o
                0x0000000000042e80                yaffs_new_obj
 .text.unlikely.yaffs_create_fake_dir
                0x000000000004311c       0x40 fs/built-in.o
 .text.unlikely.yaffs_create_initial_dir
                0x000000000004315c       0xb4 fs/built-in.o
 .text.yaffs_find_or_create_by_number
                0x0000000000043210       0x34 fs/built-in.o
                0x0000000000043210                yaffs_find_or_create_by_number
 .text.yaffs_clone_str
                0x0000000000043244       0x54 fs/built-in.o
                0x0000000000043244                yaffs_clone_str
 .text.yaffs_check_obj_details_loaded
                0x0000000000043298       0xa4 fs/built-in.o
 .text.yaffs_block_became_dirty
                0x000000000004333c      0x3a4 fs/built-in.o
                0x000000000004333c                yaffs_block_became_dirty
 .text.yaffs_chunk_del
                0x00000000000436e0      0x22c fs/built-in.o
                0x00000000000436e0                yaffs_chunk_del
 .text.yaffs_put_chunk_in_file
                0x000000000004390c      0x19c fs/built-in.o
                0x000000000004390c                yaffs_put_chunk_in_file
 .text.yaffs_write_new_chunk
                0x0000000000043aa8      0x520 fs/built-in.o
 .text.yaffs_is_non_empty_dir
                0x0000000000043fc8       0x30 fs/built-in.o
                0x0000000000043fc8                yaffs_is_non_empty_dir
 .text.yaffs_handle_shadowed_obj
                0x0000000000043ff8       0x70 fs/built-in.o
                0x0000000000043ff8                yaffs_handle_shadowed_obj
 .text.yaffs_link_fixup
                0x0000000000044068       0x5c fs/built-in.o
                0x0000000000044068                yaffs_link_fixup
 .text.yaffs_get_equivalent_obj
                0x00000000000440c4       0x28 fs/built-in.o
                0x00000000000440c4                yaffs_get_equivalent_obj
 .text.yaffs_get_obj_name
                0x00000000000440ec      0x154 fs/built-in.o
                0x00000000000440ec                yaffs_get_obj_name
 .text.yaffs_find_by_name
                0x0000000000044240      0x184 fs/built-in.o
                0x0000000000044240                yaffs_find_by_name
 .text.yaffs_change_obj_name
                0x00000000000443c4      0x144 fs/built-in.o
 .text.yaffs_generic_obj_del
                0x0000000000044508       0x78 fs/built-in.o
 .text.yaffs_check_gc
                0x0000000000044580      0xbac fs/built-in.o
 .text.yaffs_update_oh
                0x000000000004512c      0x460 fs/built-in.o
                0x000000000004512c                yaffs_update_oh
 .text.yaffs_update_parent
                0x000000000004558c       0xa8 fs/built-in.o
 .text.yaffs_wr_data_obj
                0x0000000000045634      0x15c fs/built-in.o
 .text.yaffs_flush_file_cache
                0x0000000000045790       0xec fs/built-in.o
 .text.yaffs_flush_whole_cache
                0x000000000004587c       0x70 fs/built-in.o
                0x000000000004587c                yaffs_flush_whole_cache
 .text.yaffs_grab_chunk_cache
                0x00000000000458ec       0xb0 fs/built-in.o
 .text.yaffs_file_rd
                0x000000000004599c      0x1f4 fs/built-in.o
                0x000000000004599c                yaffs_file_rd
 .text.yaffs_flush_file
                0x0000000000045b90       0x70 fs/built-in.o
                0x0000000000045b90                yaffs_flush_file
 .text.yaffs_do_file_wr
                0x0000000000045c00      0x40c fs/built-in.o
                0x0000000000045c00                yaffs_do_file_wr
 .text.yaffs_wr_file
                0x000000000004600c       0x40 fs/built-in.o
                0x000000000004600c                yaffs_wr_file
 .text.yaffs_resize_file_down
                0x000000000004604c      0x2c0 fs/built-in.o
                0x000000000004604c                yaffs_resize_file_down
 .text.yaffs_resize_file
                0x000000000004630c       0xc8 fs/built-in.o
                0x000000000004630c                yaffs_resize_file
 .text.yaffs_soft_del_file
                0x00000000000463d4       0x90 fs/built-in.o
 .text.yaffs_del_file
                0x0000000000046464      0x17c fs/built-in.o
                0x0000000000046464                yaffs_del_file
 .text.yaffs_del_obj
                0x00000000000465e0       0xe0 fs/built-in.o
                0x00000000000465e0                yaffs_del_obj
 .text.yaffs_create_obj
                0x00000000000466c0      0x15c fs/built-in.o
 .text.yaffs_create_file
                0x000000000004681c       0x38 fs/built-in.o
                0x000000000004681c                yaffs_create_file
 .text.yaffs_create_dir
                0x0000000000046854       0x38 fs/built-in.o
                0x0000000000046854                yaffs_create_dir
 .text.yaffs_unlink_obj
                0x000000000004688c      0x188 fs/built-in.o
 .text.yaffs_unlinker
                0x0000000000046a14       0x10 fs/built-in.o
                0x0000000000046a14                yaffs_unlinker
 .text.yaffs_rename_obj
                0x0000000000046a24      0x170 fs/built-in.o
                0x0000000000046a24                yaffs_rename_obj
 .text.yaffs_del_dir_contents
                0x0000000000046b94       0xa0 fs/built-in.o
 .text.yaffs_get_obj_length
                0x0000000000046c34       0x5c fs/built-in.o
                0x0000000000046c34                yaffs_get_obj_length
 .text.yaffs_get_obj_link_count
                0x0000000000046c90       0x2c fs/built-in.o
                0x0000000000046c90                yaffs_get_obj_link_count
 .text.yaffs_deinitialise
                0x0000000000046cbc       0xdc fs/built-in.o
                0x0000000000046cbc                yaffs_deinitialise
 .text.yaffs_guts_initialise
                0x0000000000046d98      0x908 fs/built-in.o
                0x0000000000046d98                yaffs_guts_initialise
 .text.yaffs_count_free_chunks
                0x00000000000476a0       0x70 fs/built-in.o
                0x00000000000476a0                yaffs_count_free_chunks
 .text.yaffs_get_n_free_chunks
                0x0000000000047710       0x78 fs/built-in.o
                0x0000000000047710                yaffs_get_n_free_chunks
 .text.yaffs_oh_to_size
                0x0000000000047788       0x2c fs/built-in.o
                0x0000000000047788                yaffs_oh_to_size
 .text.nval_used
                0x00000000000477b4       0x7c fs/built-in.o
 .text.nval_find
                0x0000000000047830       0xc8 fs/built-in.o
 .text.nval_del
                0x00000000000478f8       0x7c fs/built-in.o
                0x00000000000478f8                nval_del
 .text.nval_set
                0x0000000000047974      0x114 fs/built-in.o
                0x0000000000047974                nval_set
 .text.nval_hasvalues
                0x0000000000047a88       0x18 fs/built-in.o
                0x0000000000047a88                nval_hasvalues
 .text.yaffs_rd_chunk_tags_nand
                0x0000000000047aa0       0xf0 fs/built-in.o
                0x0000000000047aa0                yaffs_rd_chunk_tags_nand
 .text.yaffs_wr_chunk_tags_nand
                0x0000000000047b90       0xec fs/built-in.o
                0x0000000000047b90                yaffs_wr_chunk_tags_nand
 .text.yaffs_mark_bad
                0x0000000000047c7c       0x18 fs/built-in.o
                0x0000000000047c7c                yaffs_mark_bad
 .text.yaffs_query_init_block_state
                0x0000000000047c94       0x28 fs/built-in.o
                0x0000000000047c94                yaffs_query_init_block_state
 .text.yaffs_erase_block
                0x0000000000047cbc       0x1c fs/built-in.o
                0x0000000000047cbc                yaffs_erase_block
 .text.yaffs_init_nand
                0x0000000000047cd8       0x14 fs/built-in.o
                0x0000000000047cd8                yaffs_init_nand
 .text.yaffs_dump_packed_tags2_tags_only
                0x0000000000047cec       0x38 fs/built-in.o
 .text.yaffs_dump_tags2
                0x0000000000047d24       0x68 fs/built-in.o
 .text.yaffs_pack_tags2_tags_only
                0x0000000000047d8c       0xcc fs/built-in.o
                0x0000000000047d8c                yaffs_pack_tags2_tags_only
 .text.yaffs_pack_tags2
                0x0000000000047e58       0x2c fs/built-in.o
                0x0000000000047e58                yaffs_pack_tags2
 .text.yaffs_unpack_tags2_tags_only
                0x0000000000047e84       0xc4 fs/built-in.o
                0x0000000000047e84                yaffs_unpack_tags2_tags_only
 .text.yaffs_unpack_tags2
                0x0000000000047f48       0x84 fs/built-in.o
                0x0000000000047f48                yaffs_unpack_tags2
 .text.yaffs_qsort
                0x0000000000047fcc      0x850 fs/built-in.o
                0x0000000000047fcc                yaffs_qsort
 .text.yaffs_summary_deinit
                0x000000000004881c       0x2c fs/built-in.o
                0x000000000004881c                yaffs_summary_deinit
 .text.yaffs_summary_init
                0x0000000000048848       0x90 fs/built-in.o
                0x0000000000048848                yaffs_summary_init
 .text.yaffs_summary_read
                0x00000000000488d8      0x294 fs/built-in.o
                0x00000000000488d8                yaffs_summary_read
 .text.yaffs_summary_add
                0x0000000000048b6c      0x2e4 fs/built-in.o
                0x0000000000048b6c                yaffs_summary_add
 .text.yaffs_summary_fetch
                0x0000000000048e50       0x68 fs/built-in.o
                0x0000000000048e50                yaffs_summary_fetch
 .text.yaffs_summary_gc
                0x0000000000048eb8       0xfc fs/built-in.o
                0x0000000000048eb8                yaffs_summary_gc
 .text.yaffs_wr_nand
                0x0000000000048fb4       0x54 fs/built-in.o
 .text.yaffs_handle_rd_data_error
                0x0000000000049008       0xb8 fs/built-in.o
 .text.yaffs_rd_chunk_nand.constprop.2
                0x00000000000490c0      0x2c0 fs/built-in.o
 .text.yaffs_calc_ecc
                0x0000000000049380       0x24 fs/built-in.o
                0x0000000000049380                yaffs_calc_ecc
 .text.yaffs_calc_tags_ecc
                0x00000000000493a4       0x74 fs/built-in.o
                0x00000000000493a4                yaffs_calc_tags_ecc
 .text.yaffs_check_tags_ecc
                0x0000000000049418       0x60 fs/built-in.o
                0x0000000000049418                yaffs_check_tags_ecc
 .text.yaffs_tags_compat_wr
                0x0000000000049478      0x150 fs/built-in.o
                0x0000000000049478                yaffs_tags_compat_wr
 .text.yaffs_tags_compat_rd
                0x00000000000495c8      0x1b4 fs/built-in.o
                0x00000000000495c8                yaffs_tags_compat_rd
 .text.yaffs_tags_compat_mark_bad
                0x000000000004977c       0x68 fs/built-in.o
                0x000000000004977c                yaffs_tags_compat_mark_bad
 .text.yaffs_tags_compat_query_block
                0x00000000000497e4       0xfc fs/built-in.o
                0x00000000000497e4                yaffs_tags_compat_query_block
 .text.yaffs_skip_verification
                0x00000000000498e0       0x1c fs/built-in.o
                0x00000000000498e0                yaffs_skip_verification
 .text.yaffs_verify_blk
                0x00000000000498fc      0x12c fs/built-in.o
                0x00000000000498fc                yaffs_verify_blk
 .text.yaffs_verify_collected_blk
                0x0000000000049a28       0x50 fs/built-in.o
                0x0000000000049a28                yaffs_verify_collected_blk
 .text.yaffs_verify_blocks
                0x0000000000049a78      0x1cc fs/built-in.o
                0x0000000000049a78                yaffs_verify_blocks
 .text.yaffs_verify_oh
                0x0000000000049c44      0x1c4 fs/built-in.o
                0x0000000000049c44                yaffs_verify_oh
 .text.yaffs_verify_file
                0x0000000000049e08      0x114 fs/built-in.o
                0x0000000000049e08                yaffs_verify_file
 .text.yaffs_verify_dir
                0x0000000000049f1c       0xcc fs/built-in.o
                0x0000000000049f1c                yaffs_verify_dir
 .text.yaffs_verify_obj
                0x0000000000049fe8      0x264 fs/built-in.o
                0x0000000000049fe8                yaffs_verify_obj
 .text.yaffs_verify_objects
                0x000000000004a24c       0x50 fs/built-in.o
                0x000000000004a24c                yaffs_verify_objects
 .text.yaffs_verify_obj_in_dir
                0x000000000004a29c      0x11c fs/built-in.o
                0x000000000004a29c                yaffs_verify_obj_in_dir
 .text.yaffs_verify_free_chunks
                0x000000000004a3b8       0x5c fs/built-in.o
                0x000000000004a3b8                yaffs_verify_free_chunks
 .text.yaffs_verify_file_sane
                0x000000000004a414        0x8 fs/built-in.o
                0x000000000004a414                yaffs_verify_file_sane
 .text.yaffs1_scan
                0x000000000004a41c      0x790 fs/built-in.o
                0x000000000004a41c                yaffs1_scan
 .text.yaffs2_ybicmp
                0x000000000004abac       0x20 fs/built-in.o
 .text.yaffs2_checkpt_tnode_worker
                0x000000000004abcc       0xc0 fs/built-in.o
 .text.yaffs2_wr_checkpt_validity_marker
                0x000000000004ac8c       0x64 fs/built-in.o
 .text.yaffs2_rd_checkpt_validity_marker
                0x000000000004acf0       0x70 fs/built-in.o
 .text.yaffs_calc_oldest_dirty_seq
                0x000000000004ad60       0x90 fs/built-in.o
                0x000000000004ad60                yaffs_calc_oldest_dirty_seq
 .text.yaffs2_find_oldest_dirty_seq
                0x000000000004adf0       0x1c fs/built-in.o
                0x000000000004adf0                yaffs2_find_oldest_dirty_seq
 .text.yaffs2_clear_oldest_dirty_seq
                0x000000000004ae0c       0x34 fs/built-in.o
                0x000000000004ae0c                yaffs2_clear_oldest_dirty_seq
 .text.yaffs2_update_oldest_dirty_seq
                0x000000000004ae40       0x2c fs/built-in.o
                0x000000000004ae40                yaffs2_update_oldest_dirty_seq
 .text.yaffs_block_ok_for_gc
                0x000000000004ae6c       0x48 fs/built-in.o
                0x000000000004ae6c                yaffs_block_ok_for_gc
 .text.yaffs2_find_refresh_block
                0x000000000004aeb4       0xd0 fs/built-in.o
                0x000000000004aeb4                yaffs2_find_refresh_block
 .text.yaffs2_checkpt_required
                0x000000000004af84       0x48 fs/built-in.o
                0x000000000004af84                yaffs2_checkpt_required
 .text.yaffs_calc_checkpt_blocks_required
                0x000000000004afcc       0xa8 fs/built-in.o
                0x000000000004afcc                yaffs_calc_checkpt_blocks_required
 .text.yaffs2_checkpt_invalidate
                0x000000000004b074       0x48 fs/built-in.o
                0x000000000004b074                yaffs2_checkpt_invalidate
 .text.yaffs_checkpoint_save
                0x000000000004b0bc      0x47c fs/built-in.o
                0x000000000004b0bc                yaffs_checkpoint_save
 .text.yaffs2_checkpt_restore
                0x000000000004b538      0x654 fs/built-in.o
                0x000000000004b538                yaffs2_checkpt_restore
 .text.yaffs2_handle_hole
                0x000000000004bb8c      0x194 fs/built-in.o
                0x000000000004bb8c                yaffs2_handle_hole
 .text.yaffs2_scan_backwards
                0x000000000004bd20      0xce0 fs/built-in.o
                0x000000000004bd20                yaffs2_scan_backwards
 .text.nandmtd_EraseBlockInNAND
                0x000000000004ca00       0x74 fs/built-in.o
                0x000000000004ca00                nandmtd_EraseBlockInNAND
 .text.nandmtd_InitialiseNAND
                0x000000000004ca74        0x8 fs/built-in.o
                0x000000000004ca74                nandmtd_InitialiseNAND
 .text.nandmtd2_write_chunk_tags
                0x000000000004ca7c      0x158 fs/built-in.o
                0x000000000004ca7c                nandmtd2_write_chunk_tags
 .text.nandmtd2_read_chunk_tags
                0x000000000004cbd4      0x234 fs/built-in.o
                0x000000000004cbd4                nandmtd2_read_chunk_tags
 .text.nandmtd2_MarkNANDBlockBad
                0x000000000004ce08       0x54 fs/built-in.o
                0x000000000004ce08                nandmtd2_MarkNANDBlockBad
 .text.nandmtd2_QueryNANDBlock
                0x000000000004ce5c       0xe8 fs/built-in.o
                0x000000000004ce5c                nandmtd2_QueryNANDBlock
 .text.LzmaDec_WriteRem
                0x000000000004cf44       0x98 lib/built-in.o
 .text.LzmaDec_DecodeReal2
                0x000000000004cfdc      0xcdc lib/built-in.o
 .text.LzmaDec_TryDummy
                0x000000000004dcb8      0x5a0 lib/built-in.o
 .text.LzmaDec_Init
                0x000000000004e258       0x28 lib/built-in.o
                0x000000000004e258                LzmaDec_Init
 .text.LzmaDec_DecodeToDic
                0x000000000004e280      0x378 lib/built-in.o
                0x000000000004e280                LzmaDec_DecodeToDic
 .text.LzmaDec_FreeProbs
                0x000000000004e5f8       0x28 lib/built-in.o
                0x000000000004e5f8                LzmaDec_FreeProbs
 .text.LzmaDec_AllocateProbs2
                0x000000000004e620       0x74 lib/built-in.o
 .text.LzmaProps_Decode
                0x000000000004e694       0xa4 lib/built-in.o
                0x000000000004e694                LzmaProps_Decode
 .text.LzmaDec_AllocateProbs
                0x000000000004e738       0x44 lib/built-in.o
                0x000000000004e738                LzmaDec_AllocateProbs
 .text.LzmaDecode
                0x000000000004e77c       0xcc lib/built-in.o
                0x000000000004e77c                LzmaDecode
 .text.SzFree   0x000000000004e848        0x8 lib/built-in.o
 .text.SzAlloc  0x000000000004e850        0x8 lib/built-in.o
 .text.lzmaBuffToBuffDecompress
                0x000000000004e858       0xfc lib/built-in.o
                0x000000000004e858                lzmaBuffToBuffDecompress
 .text.lzo1x_decompress_safe
                0x000000000004e954      0x654 lib/built-in.o
                0x000000000004e954                lzo1x_decompress_safe
 .text.lzop_decompress
                0x000000000004efa8      0x164 lib/built-in.o
                0x000000000004efa8                lzop_decompress
 .text.zcalloc  0x000000000004f10c        0x8 lib/built-in.o
                0x000000000004f10c                zcalloc
 .text.zcfree   0x000000000004f114        0x8 lib/built-in.o
                0x000000000004f114                zcfree
 .text.inflate_fast
                0x000000000004f11c      0x57c lib/built-in.o
                0x000000000004f11c                inflate_fast
 .text.inflate_table
                0x000000000004f698      0x534 lib/built-in.o
                0x000000000004f698                inflate_table
 .text.inflateReset
                0x000000000004fbcc       0x78 lib/built-in.o
                0x000000000004fbcc                inflateReset
 .text.inflateInit2_
                0x000000000004fc44      0x108 lib/built-in.o
                0x000000000004fc44                inflateInit2_
 .text.inflateEnd
                0x000000000004fd4c       0x68 lib/built-in.o
                0x000000000004fd4c                inflateEnd
 .text.adler32  0x000000000004fdb4      0x344 lib/built-in.o
                0x000000000004fdb4                adler32
 .text.inflate  0x00000000000500f8     0x14f4 lib/built-in.o
                0x00000000000500f8                inflate
 .text.default_bzfree
                0x00000000000515ec        0xc lib/built-in.o
 .text.default_bzalloc
                0x00000000000515f8        0x8 lib/built-in.o
 .text.BZ2_bzDecompressInit
                0x0000000000051600       0xcc lib/built-in.o
                0x0000000000051600                BZ2_bzDecompressInit
 .text.BZ2_indexIntoF
                0x00000000000516cc       0x38 lib/built-in.o
                0x00000000000516cc                BZ2_indexIntoF
 .text.BZ2_bzDecompress
                0x0000000000051704      0xca0 lib/built-in.o
                0x0000000000051704                BZ2_bzDecompress
 .text.BZ2_bzDecompressEnd
                0x00000000000523a4       0x90 lib/built-in.o
                0x00000000000523a4                BZ2_bzDecompressEnd
 .text.BZ2_bzBuffToBuffDecompress
                0x0000000000052434       0xd8 lib/built-in.o
                0x0000000000052434                BZ2_bzBuffToBuffDecompress
 .text.bz_internal_error
                0x000000000005250c       0x10 lib/built-in.o
                0x000000000005250c                bz_internal_error
 .text.BZ2_decompress
                0x000000000005251c     0x26c0 lib/built-in.o
                0x000000000005251c                BZ2_decompress
 .text.BZ2_hbCreateDecodeTables
                0x0000000000054bdc      0x130 lib/built-in.o
                0x0000000000054bdc                BZ2_hbCreateDecodeTables
 .text.crc16_ccitt
                0x0000000000054d0c       0x40 lib/built-in.o
                0x0000000000054d0c                crc16_ccitt
 .text.gzalloc  0x0000000000054d4c       0x10 lib/built-in.o
                0x0000000000054d4c                gzalloc
 .text.gzfree   0x0000000000054d5c        0x8 lib/built-in.o
                0x0000000000054d5c                gzfree
 .text.zunzip   0x0000000000054d64      0x11c lib/built-in.o
                0x0000000000054d64                zunzip
 .text.gunzip   0x0000000000054e80       0xb8 lib/built-in.o
                0x0000000000054e80                gunzip
 .text.initcall_run_list
                0x0000000000054f38       0x64 lib/built-in.o
                0x0000000000054f38                initcall_run_list
 .text.lmb_add_region
                0x0000000000054f9c      0x18c lib/built-in.o
 .text.lmb_init
                0x0000000000055128       0x28 lib/built-in.o
                0x0000000000055128                lmb_init
 .text.lmb_add  0x0000000000055150        0x4 lib/built-in.o
                0x0000000000055150                lmb_add
 .text.lmb_reserve
                0x0000000000055154        0x8 lib/built-in.o
                0x0000000000055154                lmb_reserve
 .text.__lmb_alloc_base
                0x000000000005515c      0x124 lib/built-in.o
                0x000000000005515c                __lmb_alloc_base
 .text.lmb_alloc_base
                0x0000000000055280       0x30 lib/built-in.o
                0x0000000000055280                lmb_alloc_base
 .text.lmb_alloc
                0x00000000000552b0        0x8 lib/built-in.o
                0x00000000000552b0                lmb_alloc
 .text.board_lmb_reserve
                0x00000000000552b8        0x4 lib/built-in.o
                0x00000000000552b8                board_lmb_reserve
 .text.string_to_ip
                0x00000000000552bc       0x78 lib/built-in.o
                0x00000000000552bc                string_to_ip
 .text.qsort    0x0000000000055334       0xdc lib/built-in.o
                0x0000000000055334                qsort
 .text.strmhz   0x0000000000055410       0x68 lib/built-in.o
                0x0000000000055410                strmhz
 .text.rb_insert_color
                0x0000000000055478      0x130 lib/built-in.o
                0x0000000000055478                rb_insert_color
 .text.rb_erase
                0x00000000000555a8      0x350 lib/built-in.o
                0x00000000000555a8                rb_erase
 .text.rb_first
                0x00000000000558f8       0x24 lib/built-in.o
                0x00000000000558f8                rb_first
 .text.rb_last  0x000000000005591c       0x24 lib/built-in.o
                0x000000000005591c                rb_last
 .text.rb_next  0x0000000000055940       0x60 lib/built-in.o
                0x0000000000055940                rb_next
 .text.rb_next_postorder
                0x00000000000559a0       0x54 lib/built-in.o
                0x00000000000559a0                rb_next_postorder
 .text.rb_first_postorder
                0x00000000000559f4       0x34 lib/built-in.o
                0x00000000000559f4                rb_first_postorder
 .text.merge    0x0000000000055a28       0x6c lib/built-in.o
 .text.list_sort
                0x0000000000055a94      0x19c lib/built-in.o
                0x0000000000055a94                list_sort
 .text.cmpkey   0x0000000000055c30       0x14 lib/built-in.o
 .text._hdelete.isra.0
                0x0000000000055c44       0x50 lib/built-in.o
 .text.drop_var_from_set.part.1
                0x0000000000055c94       0x50 lib/built-in.o
 .text.match_string
                0x0000000000055ce4       0xb4 lib/built-in.o
 .text.match_entry
                0x0000000000055d98       0xc0 lib/built-in.o
 .text.hcreate_r
                0x0000000000055e58       0xb0 lib/built-in.o
                0x0000000000055e58                hcreate_r
 .text.hdestroy_r
                0x0000000000055f08       0x78 lib/built-in.o
                0x0000000000055f08                hdestroy_r
 .text.hsearch_r
                0x0000000000055f80      0x4b0 lib/built-in.o
                0x0000000000055f80                hsearch_r
 .text.hdelete_r
                0x0000000000056430       0xe4 lib/built-in.o
                0x0000000000056430                hdelete_r
 .text.hexport_r
                0x0000000000056514      0x2a8 lib/built-in.o
                0x0000000000056514                hexport_r
 .text.himport_r
                0x00000000000567bc      0x3d4 lib/built-in.o
                0x00000000000567bc                himport_r
 .text.hwalk_r  0x0000000000056b90       0x60 lib/built-in.o
                0x0000000000056b90                hwalk_r
 .text.display_options
                0x0000000000056bf0       0x20 lib/built-in.o
                0x0000000000056bf0                display_options
 .text.print_size
                0x0000000000056c10      0x144 lib/built-in.o
                0x0000000000056c10                print_size
 .text.print_buffer
                0x0000000000056d54      0x1b0 lib/built-in.o
                0x0000000000056d54                print_buffer
 .text.crc32_no_comp
                0x0000000000056f04       0xcc lib/built-in.o
                0x0000000000056f04                crc32_no_comp
 .text.crc32    0x0000000000056fd0       0x14 lib/built-in.o
                0x0000000000056fd0                crc32
 .text.crc32_wd
                0x0000000000056fe4        0x4 lib/built-in.o
                0x0000000000056fe4                crc32_wd
 .text.__div64_32
                0x0000000000056fe8       0xd0 lib/built-in.o
                0x0000000000056fe8                __div64_32
 .text.hang     0x00000000000570b8       0x1c lib/built-in.o
                0x00000000000570b8                hang
 .text.copy_from_user
                0x00000000000570d4       0x10 lib/built-in.o
                0x00000000000570d4                copy_from_user
 .text.kmalloc  0x00000000000570e4       0x34 lib/built-in.o
                0x00000000000570e4                kmalloc
 .text.get_mem  0x0000000000057118       0x1c lib/built-in.o
                0x0000000000057118                get_mem
 .text.kmem_cache_alloc
                0x0000000000057134        0xc lib/built-in.o
                0x0000000000057134                kmem_cache_alloc
 .text.skip_spaces
                0x0000000000057140       0x28 lib/built-in.o
                0x0000000000057140                skip_spaces
 .text.strim    0x0000000000057168       0x60 lib/built-in.o
                0x0000000000057168                strim
 .text.emit     0x00000000000571c8       0x24 lib/built-in.o
 .text.store_char_in_data
                0x00000000000571ec       0x28 lib/built-in.o
 .text.get_escape_char
                0x0000000000057214       0x80 lib/built-in.o
 .text.relocate
                0x0000000000057294       0x40 lib/built-in.o
 .text.match    0x00000000000572d4      0x3f4 lib/built-in.o
 .text.loop_greedy
                0x00000000000576c8       0x94 lib/built-in.o
 .text.loop_non_greedy
                0x000000000005775c       0x80 lib/built-in.o
 .text.quantifier
                0x00000000000577dc       0x94 lib/built-in.o
 .text.fixup_branch
                0x0000000000057870       0x40 lib/built-in.o
 .text.compile  0x00000000000578b0      0x354 lib/built-in.o
 .text.slre_compile
                0x0000000000057c04       0xd4 lib/built-in.o
                0x0000000000057c04                slre_compile
 .text.slre_match
                0x0000000000057cd8       0xa0 lib/built-in.o
                0x0000000000057cd8                slre_match
 .text.strcpy   0x0000000000057d78       0x18 lib/built-in.o
                0x0000000000057d78                strcpy
 .text.strncpy  0x0000000000057d90       0x24 lib/built-in.o
                0x0000000000057d90                strncpy
 .text.strcat   0x0000000000057db4       0x30 lib/built-in.o
                0x0000000000057db4                strcat
 .text.strncat  0x0000000000057de4       0x54 lib/built-in.o
                0x0000000000057de4                strncat
 .text.strcmp   0x0000000000057e38       0x2c lib/built-in.o
                0x0000000000057e38                strcmp
 .text.strncmp  0x0000000000057e64       0x40 lib/built-in.o
                0x0000000000057e64                strncmp
 .text.strchr   0x0000000000057ea4       0x2c lib/built-in.o
                0x0000000000057ea4                strchr
 .text.strlen   0x0000000000057ed0       0x20 lib/built-in.o
                0x0000000000057ed0                strlen
 .text.strnlen  0x0000000000057ef0       0x2c lib/built-in.o
                0x0000000000057ef0                strnlen
 .text.strdup   0x0000000000057f1c       0x40 lib/built-in.o
                0x0000000000057f1c                strdup
 .text.strpbrk  0x0000000000057f5c       0x3c lib/built-in.o
                0x0000000000057f5c                strpbrk
 .text.strsep   0x0000000000057f98       0x38 lib/built-in.o
                0x0000000000057f98                strsep
 .text.memset   0x0000000000057fd0       0x64 lib/built-in.o
                0x0000000000057fd0                memset
 .text.memcpy   0x0000000000058034       0x74 lib/built-in.o
                0x0000000000058034                memcpy
 .text.memmove  0x00000000000580a8       0x44 lib/built-in.o
                0x00000000000580a8                memmove
 .text.memcmp   0x00000000000580ec       0x30 lib/built-in.o
                0x00000000000580ec                memcmp
 .text.memscan  0x000000000005811c       0x2c lib/built-in.o
                0x000000000005811c                memscan
 .text.strstr   0x0000000000058148       0x6c lib/built-in.o
                0x0000000000058148                strstr
 .text.udelay   0x00000000000581b4       0x30 lib/built-in.o
                0x00000000000581b4                udelay
 .text.mdelay   0x00000000000581e4       0x24 lib/built-in.o
                0x00000000000581e4                mdelay
 .text.put_dec_trunc
                0x0000000000058208       0xec lib/built-in.o
 .text.string   0x00000000000582f4       0xbc lib/built-in.o
 .text.put_dec  0x00000000000583b0      0x150 lib/built-in.o
 .text.number   0x0000000000058500      0x2b8 lib/built-in.o
 .text.vsnprintf_internal
                0x00000000000587b8      0x6b8 lib/built-in.o
 .text.vscnprintf
                0x0000000000058e70       0x24 lib/built-in.o
                0x0000000000058e70                vscnprintf
 .text.snprintf
                0x0000000000058e94       0x28 lib/built-in.o
                0x0000000000058e94                snprintf
 .text.vsprintf
                0x0000000000058ebc       0x10 lib/built-in.o
                0x0000000000058ebc                vsprintf
 .text.sprintf  0x0000000000058ecc       0x28 lib/built-in.o
                0x0000000000058ecc                sprintf
 .text.printf   0x0000000000058ef4       0x44 lib/built-in.o
                0x0000000000058ef4                printf
 .text.vprintf  0x0000000000058f38       0x34 lib/built-in.o
                0x0000000000058f38                vprintf
 .text.simple_itoa
                0x0000000000058f6c       0x54 lib/built-in.o
                0x0000000000058f6c                simple_itoa
 .text.str2off  0x0000000000058fc0       0x44 lib/built-in.o
                0x0000000000058fc0                str2off
 .text.str2long
                0x0000000000059004       0x44 lib/built-in.o
                0x0000000000059004                str2long
 .text.panic_finish
                0x0000000000059048       0x30 lib/built-in.o
 .text.panic    0x0000000000059078       0x1c lib/built-in.o
                0x0000000000059078                panic
 .text.simple_strtoul
                0x0000000000059094       0xb8 lib/built-in.o
                0x0000000000059094                simple_strtoul
 .text.strict_strtoul
                0x000000000005914c       0x78 lib/built-in.o
                0x000000000005914c                strict_strtoul
 .text.simple_strtol
                0x00000000000591c4       0x20 lib/built-in.o
                0x00000000000591c4                simple_strtol
 .text.ustrtoul
                0x00000000000591e4       0x70 lib/built-in.o
                0x00000000000591e4                ustrtoul
 .text.simple_strtoull
                0x0000000000059254       0xdc lib/built-in.o
                0x0000000000059254                simple_strtoull
 .text.ustrtoull
                0x0000000000059330       0x88 lib/built-in.o
                0x0000000000059330                ustrtoull
 .text.compute_ip_checksum
                0x00000000000593b8       0x74 net/built-in.o
                0x00000000000593b8                compute_ip_checksum
 .text.ip_checksum_ok
                0x000000000005942c       0x20 net/built-in.o
                0x000000000005942c                ip_checksum_ok
 .text.arp_init
                0x000000000005944c       0x50 net/built-in.o
                0x000000000005944c                arp_init
 .text.arp_raw_request
                0x000000000005949c       0xc4 net/built-in.o
                0x000000000005949c                arp_raw_request
 .text.arp_request
                0x0000000000059560       0x84 net/built-in.o
                0x0000000000059560                arp_request
 .text.arp_timeout_check
                0x00000000000595e4       0x94 net/built-in.o
                0x00000000000595e4                arp_timeout_check
 .text.arp_receive
                0x0000000000059678      0x220 net/built-in.o
                0x0000000000059678                arp_receive
 .text.dhcp_process_options
                0x0000000000059898      0x1f0 net/built-in.o
 .text.dhcp_packet_process_options
                0x0000000000059a88       0x7c net/built-in.o
 .text.dhcp_handler
                0x0000000000059b04      0x50c net/built-in.o
 .text.bootp_reset
                0x000000000005a010       0x44 net/built-in.o
                0x000000000005a010                bootp_reset
 .text.bootp_request
                0x000000000005a054      0x31c net/built-in.o
                0x000000000005a054                bootp_request
 .text.bootp_timeout_handler
                0x000000000005a370       0x70 net/built-in.o
 .text.dhcp_request
                0x000000000005a3e0        0x4 net/built-in.o
                0x000000000005a3e0                dhcp_request
 .text.__def_eth_init
                0x000000000005a3e4        0x8 net/built-in.o
                0x000000000005a3e4                cpu_eth_init
 .text.on_ethaddr
                0x000000000005a3ec       0x90 net/built-in.o
 .text.eth_set_current_to_next
                0x000000000005a47c       0x18 net/built-in.o
                0x000000000005a47c                eth_set_current_to_next
 .text.eth_set_dev
                0x000000000005a494       0x10 net/built-in.o
                0x000000000005a494                eth_set_dev
 .text.eth_get_dev_by_name
                0x000000000005a4a4       0x84 net/built-in.o
                0x000000000005a4a4                eth_get_dev_by_name
 .text.eth_get_dev_by_index
                0x000000000005a528       0x40 net/built-in.o
                0x000000000005a528                eth_get_dev_by_index
 .text.eth_get_dev_index
                0x000000000005a568       0x1c net/built-in.o
                0x000000000005a568                eth_get_dev_index
 .text.eth_write_hwaddr
                0x000000000005a584      0x1e4 net/built-in.o
                0x000000000005a584                eth_write_hwaddr
 .text.eth_register
                0x000000000005a768       0x7c net/built-in.o
                0x000000000005a768                eth_register
 .text.eth_initialize
                0x000000000005a7e4      0x17c net/built-in.o
                0x000000000005a7e4                eth_initialize
 .text.eth_init
                0x000000000005a960       0x80 net/built-in.o
                0x000000000005a960                eth_init
 .text.eth_halt
                0x000000000005a9e0       0x34 net/built-in.o
                0x000000000005a9e0                eth_halt
 .text.eth_send
                0x000000000005aa14       0x3c net/built-in.o
                0x000000000005aa14                eth_send
 .text.eth_rx   0x000000000005aa50       0x20 net/built-in.o
                0x000000000005aa50                eth_rx
 .text.eth_parse_enetaddr
                0x000000000005aa70       0x5c net/built-in.o
                0x000000000005aa70                eth_parse_enetaddr
 .text.eth_getenv_enetaddr
                0x000000000005aacc       0x5c net/built-in.o
                0x000000000005aacc                eth_getenv_enetaddr
 .text.eth_setenv_enetaddr
                0x000000000005ab28       0x34 net/built-in.o
                0x000000000005ab28                eth_setenv_enetaddr
 .text.eth_getenv_enetaddr_by_index
                0x000000000005ab5c       0x4c net/built-in.o
                0x000000000005ab5c                eth_getenv_enetaddr_by_index
 .text.eth_setenv_enetaddr_by_index
                0x000000000005aba8       0x4c net/built-in.o
                0x000000000005aba8                eth_setenv_enetaddr_by_index
 .text.eth_common_init
                0x000000000005abf4        0x8 net/built-in.o
                0x000000000005abf4                eth_common_init
 .text.eth_mac_skip
                0x000000000005abfc       0x40 net/built-in.o
                0x000000000005abfc                eth_mac_skip
 .text.eth_get_name
                0x000000000005ac3c       0x20 net/built-in.o
                0x000000000005ac3c                eth_get_name
 .text.eth_current_changed
                0x000000000005ac5c       0x9c net/built-in.o
                0x000000000005ac5c                eth_current_changed
 .text.eth_try_another
                0x000000000005acf8       0x88 net/built-in.o
                0x000000000005acf8                eth_try_another
 .text.eth_set_current
                0x000000000005ad80       0x8c net/built-in.o
                0x000000000005ad80                eth_set_current
 .text.net_clear_handlers
                0x000000000005ae0c       0x34 net/built-in.o
 .text.start_again_timeout_handler
                0x000000000005ae40       0x14 net/built-in.o
 .text.dummy_handler
                0x000000000005ae54        0x4 net/built-in.o
 .text.on_ipaddr
                0x000000000005ae58       0x30 net/built-in.o
 .text.on_gatewayip
                0x000000000005ae88       0x30 net/built-in.o
 .text.on_netmask
                0x000000000005aeb8       0x30 net/built-in.o
 .text.on_serverip
                0x000000000005aee8       0x30 net/built-in.o
 .text.net_init_loop
                0x000000000005af18       0x28 net/built-in.o
 .text.net_auto_load
                0x000000000005af40       0x60 net/built-in.o
                0x000000000005af40                net_auto_load
 .text.net_init
                0x000000000005afa0       0x70 net/built-in.o
                0x000000000005afa0                net_init
 .text.net_start_again
                0x000000000005b010      0x16c net/built-in.o
                0x000000000005b010                net_start_again
 .text.net_loop
                0x000000000005b17c      0x3a4 net/built-in.o
                0x000000000005b17c                net_loop
 .text.net_set_udp_handler
                0x000000000005b520       0x20 net/built-in.o
                0x000000000005b520                net_set_udp_handler
 .text.net_get_arp_handler
                0x000000000005b540       0x10 net/built-in.o
                0x000000000005b540                net_get_arp_handler
 .text.net_set_timeout_handler
                0x000000000005b550       0x54 net/built-in.o
                0x000000000005b550                net_set_timeout_handler
 .text.net_process_received_packet
                0x000000000005b5a4      0x2ec net/built-in.o
                0x000000000005b5a4                net_process_received_packet
 .text.net_eth_hdr_size
                0x000000000005b890       0x40 net/built-in.o
                0x000000000005b890                net_eth_hdr_size
 .text.net_set_ether
                0x000000000005b8d0       0xa4 net/built-in.o
                0x000000000005b8d0                net_set_ether
 .text.net_update_ether
                0x000000000005b974       0x84 net/built-in.o
                0x000000000005b974                net_update_ether
 .text.net_set_ip_header
                0x000000000005b9f8       0x88 net/built-in.o
                0x000000000005b9f8                net_set_ip_header
 .text.net_set_udp_header
                0x000000000005ba80       0xa8 net/built-in.o
                0x000000000005ba80                net_set_udp_header
 .text.net_send_udp_packet
                0x000000000005bb28      0x108 net/built-in.o
                0x000000000005bb28                net_send_udp_packet
 .text.copy_filename
                0x000000000005bc30       0x44 net/built-in.o
                0x000000000005bc30                copy_filename
 .text.on_bootfile
                0x000000000005bc74       0x34 net/built-in.o
 .text.ip_to_string
                0x000000000005bca8       0x58 net/built-in.o
                0x000000000005bca8                ip_to_string
 .text.string_to_vlan
                0x000000000005bd00       0x58 net/built-in.o
                0x000000000005bd00                string_to_vlan
 .text.on_nvlan
                0x000000000005bd58       0x30 net/built-in.o
 .text.on_vlan  0x000000000005bd88       0x30 net/built-in.o
 .text.rpc_lookup_reply
                0x000000000005bdb8       0xec net/built-in.o
 .text.nfs_mount_reply
                0x000000000005bea4       0xb8 net/built-in.o
 .text.nfs_umountall_reply
                0x000000000005bf5c       0xa8 net/built-in.o
 .text.nfs_lookup_reply
                0x000000000005c004       0xa8 net/built-in.o
 .text.nfs_readlink_reply
                0x000000000005c0ac      0x120 net/built-in.o
 .text.basename
                0x000000000005c1cc       0x3c net/built-in.o
 .text.rpc_add_credentials
                0x000000000005c208       0xdc net/built-in.o
 .text.rpc_req  0x000000000005c2e4      0x134 net/built-in.o
 .text.nfs_mount_req
                0x000000000005c418       0xac net/built-in.o
 .text.nfs_umountall_req
                0x000000000005c4c4       0x60 net/built-in.o
 .text.nfs_lookup_req
                0x000000000005c524       0xc0 net/built-in.o
 .text.nfs_read_req
                0x000000000005c5e4       0xa0 net/built-in.o
 .text.nfs_readlink_req
                0x000000000005c684       0x58 net/built-in.o
 .text.nfs_read_reply.isra.0
                0x000000000005c6dc      0x16c net/built-in.o
 .text.nfs_send
                0x000000000005c848      0x114 net/built-in.o
 .text.nfs_handler
                0x000000000005c95c      0x220 net/built-in.o
 .text.nfs_timeout_handler
                0x000000000005cb7c       0x64 net/built-in.o
 .text.nfs_start
                0x000000000005cbe0      0x250 net/built-in.o
                0x000000000005cbe0                nfs_start
 .text.ping_timeout_handler
                0x000000000005ce30       0x1c net/built-in.o
 .text.ping_start
                0x000000000005ce4c      0x120 net/built-in.o
                0x000000000005ce4c                ping_start
 .text.ping_receive
                0x000000000005cf6c       0xdc net/built-in.o
                0x000000000005cf6c                ping_receive
 .text.tftp_send
                0x000000000005d048      0x1c4 net/built-in.o
 .text.tftp_handler
                0x000000000005d20c      0x3b0 net/built-in.o
 .text.tftp_timeout_handler
                0x000000000005d5bc       0x88 net/built-in.o
 .text.tftp_start
                0x000000000005d644      0x384 net/built-in.o
                0x000000000005d644                tftp_start
 .text.raise    0x000000000005d9c8       0x1c arch/arm/lib/eabi_compat.o
                0x000000000005d9c8                raise
 .text          0x000000000005d9e4      0x114 /home/gmf/uboot/toolchain/x-tools/arm-s3c2440-linux-gnueabi/lib/gcc/arm-s3c2440-linux-gnueabi/5.2.0/libgcc.a(_udivsi3.o)
                0x000000000005d9e4                __udivsi3
                0x000000000005d9e4                __aeabi_uidiv
                0x000000000005dad8                __aeabi_uidivmod
 .text          0x000000000005daf8      0x148 /home/gmf/uboot/toolchain/x-tools/arm-s3c2440-linux-gnueabi/lib/gcc/arm-s3c2440-linux-gnueabi/5.2.0/libgcc.a(_divsi3.o)
                0x000000000005daf8                __aeabi_idiv
                0x000000000005daf8                __divsi3
                0x000000000005dc20                __aeabi_idivmod
 .text          0x000000000005dc40       0x1c /home/gmf/uboot/toolchain/x-tools/arm-s3c2440-linux-gnueabi/lib/gcc/arm-s3c2440-linux-gnueabi/5.2.0/libgcc.a(_lshrdi3.o)
                0x000000000005dc40                __aeabi_llsr
                0x000000000005dc40                __lshrdi3
 .text          0x000000000005dc5c       0x1c /home/gmf/uboot/toolchain/x-tools/arm-s3c2440-linux-gnueabi/lib/gcc/arm-s3c2440-linux-gnueabi/5.2.0/libgcc.a(_ashrdi3.o)
                0x000000000005dc5c                __ashrdi3
                0x000000000005dc5c                __aeabi_lasr
 .text          0x000000000005dc78       0x1c /home/gmf/uboot/toolchain/x-tools/arm-s3c2440-linux-gnueabi/lib/gcc/arm-s3c2440-linux-gnueabi/5.2.0/libgcc.a(_ashldi3.o)
                0x000000000005dc78                __ashldi3
                0x000000000005dc78                __aeabi_llsl
 .text          0x000000000005dc94       0x14 /home/gmf/uboot/toolchain/x-tools/arm-s3c2440-linux-gnueabi/lib/gcc/arm-s3c2440-linux-gnueabi/5.2.0/libgcc.a(_dvmd_lnx.o)
                0x000000000005dc94                __aeabi_ldiv0
                0x000000000005dc94                __aeabi_idiv0

.glue_7         0x000000000005dca8        0x0
 .glue_7        0x000000000005dca8        0x0 linker stubs

.glue_7t        0x000000000005dca8        0x0
 .glue_7t       0x000000000005dca8        0x0 linker stubs

.vfp11_veneer   0x000000000005dca8        0x0
 .vfp11_veneer  0x000000000005dca8        0x0 linker stubs

.v4_bx          0x000000000005dca8        0x0
 .v4_bx         0x000000000005dca8        0x0 linker stubs

.iplt           0x000000000005dca8        0x0
 .iplt          0x000000000005dca8        0x0 arch/arm/cpu/arm920t/start.o
                0x000000000005dca8                . = ALIGN (0x4)

.rodata         0x000000000005dca8     0xfb46
 *(SORT(.rodata*))
 .rodata        0x000000000005dca8       0x80 arch/arm/lib/built-in.o
 .rodata        0x000000000005dd28       0x30 drivers/built-in.o
 .rodata        0x000000000005dd58        0x8 drivers/mtd/built-in.o
 .rodata.CSWTCH.20
                0x000000000005dd60       0xa4 fs/built-in.o
 .rodata.CSWTCH.28
                0x000000000005de04       0x20 common/built-in.o
 .rodata.CSWTCH.31
                0x000000000005de24       0x14 cmd/built-in.o
 .rodata.block_drvr
                0x000000000005de38       0x18 disk/built-in.o
                0x000000000005de38                block_drvr
 .rodata.block_state_name
                0x000000000005de50       0x28 fs/built-in.o
 .rodata.boot_os
                0x000000000005de78       0x60 common/built-in.o
 .rodata.cc_to_error
                0x000000000005ded8       0x40 drivers/usb/host/built-in.o
 .rodata.crc32table_le
                0x000000000005df18      0x400 drivers/mtd/ubi/built-in.o
 .rodata.crc_table
                0x000000000005e318      0x400 lib/built-in.o
 .rodata.env_flags_varaccess_mask
                0x000000000005e718       0x10 common/built-in.o
 .rodata.flash_offset_cfi
                0x000000000005e728        0x8 drivers/mtd/built-in.o
 .rodata.freq_f
                0x000000000005e730        0xc arch/arm/cpu/arm920t/built-in.o
 .rodata.jedec_table
                0x000000000005e73c      0x150 drivers/mtd/built-in.o
 .rodata.mon_lengths.7584
                0x000000000005e88c       0x60 fs/built-in.o
 .rodata.op_adv
                0x000000000005e8ec      0x100 cmd/built-in.o
                0x000000000005e8ec                op_adv
 .rodata.op_table
                0x000000000005e9ec       0x68 cmd/built-in.o
 .rodata.ubifs_super_operations
                0x000000000005ea54       0x3c fs/built-in.o
                0x000000000005ea54                ubifs_super_operations
 .rodata.uimage_arch
                0x000000000005ea90      0x12c common/built-in.o
 .rodata.uimage_comp
                0x000000000005ebbc       0x54 common/built-in.o
 .rodata.uimage_os
                0x000000000005ec10       0x78 common/built-in.o
 .rodata.uimage_type
                0x000000000005ec88      0x144 common/built-in.o
 .rodata.unlock_addrs
                0x000000000005edcc       0x38 drivers/mtd/built-in.o
 .rodata.weekdays
                0x000000000005ee04       0x1c cmd/built-in.o
 .rodata.year_lengths.7585
                0x000000000005ee20        0x8 fs/built-in.o
 .rodata.crc16_tab
                0x000000000005ee28      0x200 lib/built-in.o
 .rodata.crc16_table
                0x000000000005f028      0x200 fs/built-in.o
                0x000000000005f028                crc16_table
 .rodata.dbase.7028
                0x000000000005f228       0x40 lib/built-in.o
 .rodata.dext.7029
                0x000000000005f268       0x40 lib/built-in.o
 .rodata.distfix
                0x000000000005f2a8       0x80 lib/built-in.o
 .rodata.lbase.7026
                0x000000000005f328       0x3e lib/built-in.o
 .rodata.lenfix
                0x000000000005f366      0x800 lib/built-in.o
 .rodata.lext.7027
                0x000000000005fb66       0x3e lib/built-in.o
 .rodata.order.7122
                0x000000000005fba4       0x26 lib/built-in.o
 .rodata        0x000000000005fbca        0x3 common/built-in.o
 .rodata        0x000000000005fbcd        0x7 net/built-in.o
 .rodata.CSWTCH.10
                0x000000000005fbd4        0x3 fs/built-in.o
 .rodata.CSWTCH.23
                0x000000000005fbd7       0x16 common/built-in.o
 .rodata.__FUNCTION__.7204
                0x000000000005fbed       0x14 net/built-in.o
 .rodata.__FUNCTION__.7716
                0x000000000005fc01       0x15 fs/built-in.o
 .rodata.__FUNCTION__.7734
                0x000000000005fc16       0x15 fs/built-in.o
 .rodata.__FUNCTION__.7741
                0x000000000005fc2b       0x11 fs/built-in.o
 .rodata.__FUNCTION__.7743
                0x000000000005fc3c       0x15 fs/built-in.o
 .rodata.__FUNCTION__.7747
                0x000000000005fc51       0x1a fs/built-in.o
 .rodata.__FUNCTION__.7760
                0x000000000005fc6b       0x15 fs/built-in.o
 .rodata.__FUNCTION__.7763
                0x000000000005fc80       0x15 fs/built-in.o
 .rodata.__FUNCTION__.7775
                0x000000000005fc95       0x16 fs/built-in.o
 .rodata.__FUNCTION__.7778
                0x000000000005fcab       0x15 fs/built-in.o
 .rodata.__FUNCTION__.7781
                0x000000000005fcc0       0x15 fs/built-in.o
 .rodata.__FUNCTION__.7786
                0x000000000005fcd5       0x14 fs/built-in.o
 .rodata.__FUNCTION__.7792
                0x000000000005fce9       0x16 fs/built-in.o
 .rodata.__FUNCTION__.7800
                0x000000000005fcff       0x15 fs/built-in.o
 .rodata.__FUNCTION__.7813
                0x000000000005fd14       0x15 fs/built-in.o
 .rodata.__FUNCTION__.7814
                0x000000000005fd29       0x14 fs/built-in.o
 .rodata.__FUNCTION__.7822
                0x000000000005fd3d       0x13 fs/built-in.o
 .rodata.__FUNCTION__.7826
                0x000000000005fd50       0x21 fs/built-in.o
 .rodata.__FUNCTION__.7831
                0x000000000005fd71       0x1f fs/built-in.o
 .rodata.__FUNCTION__.7843
                0x000000000005fd90       0x19 fs/built-in.o
 .rodata.__FUNCTION__.7916
                0x000000000005fda9       0x18 fs/built-in.o
 .rodata.__FUNCTION__.7927
                0x000000000005fdc1       0x11 fs/built-in.o
 .rodata.__FUNCTION__.8014
                0x000000000005fdd2        0xb drivers/mtd/nand/built-in.o
 .rodata.__FUNCTION__.8085
                0x000000000005fddd       0x11 drivers/mtd/nand/built-in.o
 .rodata.__FUNCTION__.8157
                0x000000000005fdee       0x11 drivers/mtd/nand/built-in.o
 .rodata.__FUNCTION__.8260
                0x000000000005fdff       0x1a fs/built-in.o
 .rodata.__FUNCTION__.8285
                0x000000000005fe19       0x18 fs/built-in.o
 .rodata.__FUNCTION__.8317
                0x000000000005fe31       0x15 fs/built-in.o
 .rodata.__FUNCTION__.8328
                0x000000000005fe46       0x16 fs/built-in.o
 .rodata.__FUNCTION__.8377
                0x000000000005fe5c       0x10 drivers/mtd/ubi/built-in.o
 .rodata.__FUNCTION__.8421
                0x000000000005fe6c        0xf fs/built-in.o
 .rodata.__FUNCTION__.8448
                0x000000000005fe7b       0x13 drivers/mtd/built-in.o
 .rodata.__FUNCTION__.8494
                0x000000000005fe8e       0x12 drivers/mtd/nand/built-in.o
 .rodata.__FUNCTION__.8739
                0x000000000005fea0       0x12 fs/built-in.o
 .rodata.__FUNCTION__.8778
                0x000000000005feb2        0xe drivers/mtd/nand/built-in.o
 .rodata.__FUNCTION__.8876
                0x000000000005fec0       0x11 fs/built-in.o
 .rodata.__FUNCTION__.8995
                0x000000000005fed1       0x11 fs/built-in.o
 .rodata.__FUNCTION__.9062
                0x000000000005fee2       0x17 fs/built-in.o
 .rodata.__FUNCTION__.9079
                0x000000000005fef9       0x13 fs/built-in.o
 .rodata.__FUNCTION__.9085
                0x000000000005ff0c        0xf drivers/mtd/nand/built-in.o
 .rodata.__func__.10014
                0x000000000005ff1b        0x9 fs/built-in.o
 .rodata.__func__.10030
                0x000000000005ff24        0xb fs/built-in.o
 .rodata.__func__.10065
                0x000000000005ff2f        0xc fs/built-in.o
 .rodata.__func__.10086
                0x000000000005ff3b        0xb fs/built-in.o
 .rodata.__func__.6867
                0x000000000005ff46       0x10 common/built-in.o
 .rodata.__func__.6883
                0x000000000005ff56        0xb common/built-in.o
 .rodata.__func__.6890
                0x000000000005ff61        0xb common/built-in.o
 .rodata.__func__.6928
                0x000000000005ff6c        0xf fs/built-in.o
 .rodata.__func__.7248
                0x000000000005ff7b        0xe cmd/built-in.o
 .rodata.__func__.7285
                0x000000000005ff89        0xe cmd/built-in.o
 .rodata.__func__.8146
                0x000000000005ff97        0xb cmd/built-in.o
 .rodata.__func__.9941
                0x000000000005ffa2        0x8 fs/built-in.o
 .rodata.__func__.9971
                0x000000000005ffaa        0xe fs/built-in.o
 .rodata._ctype
                0x000000000005ffb8      0x100 lib/built-in.o
                0x000000000005ffb8                _ctype
 .rodata.column_parity_table
                0x00000000000600b8      0x100 fs/built-in.o
 .rodata.day_name.7578
                0x00000000000601b8       0x15 fs/built-in.o
 .rodata.default_environment
                0x00000000000601cd       0x58 common/built-in.o
                0x00000000000601cd                default_environment
 .rodata.digits.6682
                0x0000000000060225       0x10 lib/built-in.o
 .rodata.env_flags_varaccess_rep
                0x0000000000060235        0x5 common/built-in.o
 .rodata.env_flags_vartype_rep
                0x000000000006023a        0x7 common/built-in.o
 .rodata.erase_seq
                0x0000000000060241        0x4 common/built-in.o
 .rodata.freq_c
                0x0000000000060245        0x3 arch/arm/cpu/arm920t/built-in.o
 .rodata.hex_asc
                0x0000000000060248       0x11 lib/built-in.o
 .rodata.lzop_magic
                0x0000000000060259        0x9 lib/built-in.o
 .rodata.mon_name.7579
                0x0000000000060262       0x24 fs/built-in.o
 .rodata.names.6835
                0x0000000000060286        0x6 lib/built-in.o
 .rodata.nand_ecc_precalc_table
                0x000000000006028c      0x100 drivers/mtd/nand/built-in.o
 .rodata.net_bcast_ethaddr
                0x000000000006038c        0x6 net/built-in.o
                0x000000000006038c                net_bcast_ethaddr
 .rodata.patterns
                0x0000000000060392        0x3 drivers/mtd/ubi/built-in.o
 .rodata.str1.1
                0x0000000000060395       0x1d arch/arm/cpu/arm920t/built-in.o
 .rodata.str1.1
                0x00000000000603b2      0x2ee arch/arm/lib/built-in.o
                                        0x335 (size before relaxing)
 .rodata.str1.1
                0x00000000000606a0     0x55ea cmd/built-in.o
                                       0x590c (size before relaxing)
 .rodata.str1.1
                0x0000000000065c8a     0x1d12 common/built-in.o
                                       0x2010 (size before relaxing)
 .rodata.str1.1
                0x000000000006799c      0x42a disk/built-in.o
                                        0x49e (size before relaxing)
 .rodata.str1.1
                0x0000000000067dc6      0x66c drivers/mtd/built-in.o
                                        0x6fc (size before relaxing)
 .rodata.str1.1
                0x0000000000068432      0x8f6 drivers/mtd/nand/built-in.o
                                        0x93c (size before relaxing)
 .rodata.str1.1
                0x0000000000068d28      0x8fa drivers/mtd/ubi/built-in.o
                                        0x934 (size before relaxing)
 .rodata.str1.1
                0x0000000000069622       0x48 drivers/net/built-in.o
 .rodata.str1.1
                0x000000000006966a       0x57 drivers/serial/built-in.o
                                         0x92 (size before relaxing)
 .rodata.str1.1
                0x00000000000696c1      0x238 drivers/usb/host/built-in.o
 .rodata.str1.1
                0x00000000000698f9     0x30c9 fs/built-in.o
                                       0x368f (size before relaxing)
 .rodata.str1.1
                0x000000000006c9c2      0x5af lib/built-in.o
                                        0x5e5 (size before relaxing)
 .rodata.str1.1
                0x000000000006cf71      0x7b4 net/built-in.o
                                        0x92c (size before relaxing)
 .rodata.str1.1
                0x000000000006d725       0x1b arch/arm/lib/eabi_compat.o
 .rodata.tab_seq
                0x000000000006d740        0x9 common/built-in.o
 .rodata.us_direction
                0x000000000006d749       0x20 common/built-in.o
 .rodata.usb_kbd_arrow
                0x000000000006d769        0x4 common/built-in.o
 .rodata.usb_kbd_num_keypad
                0x000000000006d76d       0x14 common/built-in.o
 .rodata.usb_kbd_numkey
                0x000000000006d781       0x1b common/built-in.o
 .rodata.usb_kbd_numkey_shifted
                0x000000000006d79c       0x1b common/built-in.o
 .rodata.version_string
                0x000000000006d7b7       0x37 cmd/built-in.o
                0x000000000006d7b7                version_string

.hash           0x000000000006d7f0       0x2c
 .hash          0x000000000006d7f0       0x2c arch/arm/cpu/arm920t/start.o
                0x000000000006d81c                . = ALIGN (0x4)

.data           0x000000000006d81c     0x6044
 *(.data*)
 .data.cmd_bootm_sub
                0x000000000006d81c       0xc0 cmd/built-in.o
 .data.bootm_help_text
                0x000000000006d8dc      0x245 cmd/built-in.o
 .data.source_help_text
                0x000000000006db21       0x4e cmd/built-in.o
 *fill*         0x000000000006db6f        0x1 
 .data.default_tm
                0x000000000006db70       0x24 cmd/built-in.o
 .data.do_echo  0x000000000006db94        0x4 cmd/built-in.o
 .data.dp_last_length
                0x000000000006db98        0x4 cmd/built-in.o
 .data.mtdparts_help_text
                0x000000000006db9c      0x4d3 cmd/built-in.o
 .data.nand_help_text
                0x000000000006e06f      0x3e3 cmd/built-in.o
 *fill*         0x000000000006e452        0x2 
 .data.usb_stor_curr_dev
                0x000000000006e454        0x4 cmd/built-in.o
 .data.imgextract_help_text
                0x000000000006e458       0x55 cmd/built-in.o
 .data.env_help_text
                0x000000000006e4ad      0x24f cmd/built-in.o
 .data.env_id   0x000000000006e6fc        0x4 cmd/built-in.o
 .data.cmd_env_sub
                0x000000000006e700       0xf0 cmd/built-in.o
 .data.reserved_list
                0x000000000006e7f0       0x84 common/built-in.o
 .data.retry_time
                0x000000000006e874        0x4 common/built-in.o
 .data.init_sequence_f
                0x000000000006e878       0x90 common/built-in.o
 .data.init_sequence_r
                0x000000000006e908       0x68 common/built-in.o
                0x000000000006e908                init_sequence_r
 .data.first_call
                0x000000000006e970        0x8 common/built-in.o
 .data.env_ptr  0x000000000006e978        0x4 common/built-in.o
                0x000000000006e978                env_ptr
 .data.env_name_spec
                0x000000000006e97c        0x4 common/built-in.o
                0x000000000006e97c                env_name_spec
 .data.usb_scan_list
                0x000000000006e980        0x8 common/built-in.o
 .data.env_htab
                0x000000000006e988       0x10 common/built-in.o
                0x000000000006e988                env_htab
 .data.av_      0x000000000006e998      0x408 common/built-in.o
 .data.sbrk_base
                0x000000000006eda0        0x4 common/built-in.o
 .data.trim_threshold
                0x000000000006eda4        0x4 common/built-in.o
 .data.load_addr
                0x000000000006eda8        0x4 common/built-in.o
                0x000000000006eda8                load_addr
 .data.stdio_names
                0x000000000006edac        0xc common/built-in.o
                0x000000000006edac                stdio_names
 .data.hist_cur
                0x000000000006edb8        0x4 common/built-in.o
 .data.month_days
                0x000000000006edbc       0x30 drivers/built-in.o
 .data.mtd_partitions
                0x000000000006edec        0x8 drivers/mtd/built-in.o
 .data.nand_curr_device
                0x000000000006edf4        0x4 drivers/mtd/nand/built-in.o
                0x000000000006edf4                nand_curr_device
 .data.bbt_mirror_descr
                0x000000000006edf8       0x24 drivers/mtd/nand/built-in.o
 .data.mirror_pattern
                0x000000000006ee1c        0x4 drivers/mtd/nand/built-in.o
 .data.bbt_main_no_oob_descr
                0x000000000006ee20       0x24 drivers/mtd/nand/built-in.o
 .data.bbt_mirror_no_oob_descr
                0x000000000006ee44       0x24 drivers/mtd/nand/built-in.o
 .data.bbt_pattern
                0x000000000006ee68        0x4 drivers/mtd/nand/built-in.o
 .data.scan_ff_pattern
                0x000000000006ee6c        0x2 drivers/mtd/nand/built-in.o
 *fill*         0x000000000006ee6e        0x2 
 .data.bbt_main_descr
                0x000000000006ee70       0x24 drivers/mtd/nand/built-in.o
 .data.nand_flash_ids
                0x000000000006ee94      0xcf8 drivers/mtd/nand/built-in.o
                0x000000000006ee94                nand_flash_ids
 .data.nand_oob_8
                0x000000000006fb8c      0xba8 drivers/mtd/nand/built-in.o
 .data.nand_oob_128
                0x0000000000070734      0xba8 drivers/mtd/nand/built-in.o
 .data.nand_oob_16
                0x00000000000712dc      0xba8 drivers/mtd/nand/built-in.o
 .data.nand_oob_64
                0x0000000000071e84      0xba8 drivers/mtd/nand/built-in.o
 .data.s3c24xx_serial0_device
                0x0000000000072a2c       0x30 drivers/serial/built-in.o
                0x0000000000072a2c                s3c24xx_serial0_device
 .data.s3c24xx_serial2_device
                0x0000000000072a5c       0x30 drivers/serial/built-in.o
                0x0000000000072a5c                s3c24xx_serial2_device
 .data.s3c24xx_serial1_device
                0x0000000000072a8c       0x30 drivers/serial/built-in.o
                0x0000000000072a8c                s3c24xx_serial1_device
 .data.root_hub_config_des
                0x0000000000072abc       0x19 drivers/usb/host/built-in.o
 .data.root_hub_dev_des
                0x0000000000072ad5       0x12 drivers/usb/host/built-in.o
 .data.root_hub_str_index0
                0x0000000000072ae7        0x4 drivers/usb/host/built-in.o
 .data.root_hub_str_index1
                0x0000000000072aeb       0x20 drivers/usb/host/built-in.o
 *fill*         0x0000000000072b0b        0x1 
 .data.fstypes  0x0000000000072b0c       0xb0 fs/built-in.o
 .data.ext4fs_indir3_blkno
                0x0000000000072bbc        0x4 fs/built-in.o
                0x0000000000072bbc                ext4fs_indir3_blkno
 .data.ext4fs_indir1_blkno
                0x0000000000072bc0        0x4 fs/built-in.o
                0x0000000000072bc0                ext4fs_indir1_blkno
 .data.ext4fs_indir2_blkno
                0x0000000000072bc4        0x4 fs/built-in.o
                0x0000000000072bc4                ext4fs_indir2_blkno
 .data.lzo_compr
                0x0000000000072bc8       0x1c fs/built-in.o
 .data.none_compr
                0x0000000000072be4       0x1c fs/built-in.o
 .data.zlib_compr
                0x0000000000072c00       0x1c fs/built-in.o
 .data.ubifs_fs_type
                0x0000000000072c1c       0x1c fs/built-in.o
 .data.yaffsfs_deviceList
                0x0000000000072c38        0x8 fs/built-in.o
                0x0000000000072c38                yaffsfs_deviceList
 .data.BZ2_crc32Table
                0x0000000000072c40      0x400 lib/built-in.o
                0x0000000000072c40                BZ2_crc32Table
 .data.BZ2_rNums
                0x0000000000073040      0x800 lib/built-in.o
                0x0000000000073040                BZ2_rNums
 .data.net_native_vlan
                0x0000000000073840        0x2 net/built-in.o
                0x0000000000073840                net_native_vlan
 .data.net_our_vlan
                0x0000000000073842        0x2 net/built-in.o
                0x0000000000073842                net_our_vlan
 .data.first_call.6990
                0x0000000000073844        0x4 net/built-in.o
 .data.nfs_offset
                0x0000000000073848        0x4 net/built-in.o
 .data.tftp_block_size_option
                0x000000000007384c        0x2 net/built-in.o
 *fill*         0x000000000007384e        0x2 
 .data.tftp_timeout_count_max
                0x0000000000073850        0x4 net/built-in.o
                0x0000000000073850                tftp_timeout_count_max
 .data.timeout_ms
                0x0000000000073854        0x4 net/built-in.o
 .data.tftp_block_size
                0x0000000000073858        0x2 net/built-in.o
 *fill*         0x000000000007385a        0x2 
 .data.timeout_count_max
                0x000000000007385c        0x4 net/built-in.o

.got            0x0000000000073860        0x0
 .got           0x0000000000073860        0x0 arch/arm/cpu/arm920t/start.o

.got.plt        0x0000000000073860        0xc
 .got.plt       0x0000000000073860        0xc arch/arm/cpu/arm920t/start.o
                0x0000000000073860                _GLOBAL_OFFSET_TABLE_

.igot.plt       0x000000000007386c        0x0
 .igot.plt      0x000000000007386c        0x0 arch/arm/cpu/arm920t/start.o
                0x000000000007386c                . = ALIGN (0x4)
                0x000000000007386c                . = .
                0x000000000007386c                . = ALIGN (0x4)

.u_boot_list    0x000000000007386c      0x88c
 *(SORT(.u_boot_list*))
 .u_boot_list_2_cmd_1
                0x000000000007386c        0x0 cmd/built-in.o
 .u_boot_list_2_cmd_1
                0x000000000007386c        0x0 common/built-in.o
 .u_boot_list_2_cmd_2_base
                0x000000000007386c       0x18 cmd/built-in.o
                0x000000000007386c                _u_boot_list_2_cmd_2_base
 .u_boot_list_2_cmd_2_bdinfo
                0x0000000000073884       0x18 cmd/built-in.o
                0x0000000000073884                _u_boot_list_2_cmd_2_bdinfo
 .u_boot_list_2_cmd_2_boot
                0x000000000007389c       0x18 cmd/built-in.o
                0x000000000007389c                _u_boot_list_2_cmd_2_boot
 .u_boot_list_2_cmd_2_bootd
                0x00000000000738b4       0x18 cmd/built-in.o
                0x00000000000738b4                _u_boot_list_2_cmd_2_bootd
 .u_boot_list_2_cmd_2_bootelf
                0x00000000000738cc       0x18 cmd/built-in.o
                0x00000000000738cc                _u_boot_list_2_cmd_2_bootelf
 .u_boot_list_2_cmd_2_bootm
                0x00000000000738e4       0x18 cmd/built-in.o
                0x00000000000738e4                _u_boot_list_2_cmd_2_bootm
 .u_boot_list_2_cmd_2_bootp
                0x00000000000738fc       0x18 cmd/built-in.o
                0x00000000000738fc                _u_boot_list_2_cmd_2_bootp
 .u_boot_list_2_cmd_2_bootvx
                0x0000000000073914       0x18 cmd/built-in.o
                0x0000000000073914                _u_boot_list_2_cmd_2_bootvx
 .u_boot_list_2_cmd_2_chpart
                0x000000000007392c       0x18 cmd/built-in.o
                0x000000000007392c                _u_boot_list_2_cmd_2_chpart
 .u_boot_list_2_cmd_2_cmp
                0x0000000000073944       0x18 cmd/built-in.o
                0x0000000000073944                _u_boot_list_2_cmd_2_cmp
 .u_boot_list_2_cmd_2_coninfo
                0x000000000007395c       0x18 cmd/built-in.o
                0x000000000007395c                _u_boot_list_2_cmd_2_coninfo
 .u_boot_list_2_cmd_2_cp
                0x0000000000073974       0x18 cmd/built-in.o
                0x0000000000073974                _u_boot_list_2_cmd_2_cp
 .u_boot_list_2_cmd_2_crc32
                0x000000000007398c       0x18 cmd/built-in.o
                0x000000000007398c                _u_boot_list_2_cmd_2_crc32
 .u_boot_list_2_cmd_2_date
                0x00000000000739a4       0x18 cmd/built-in.o
                0x00000000000739a4                _u_boot_list_2_cmd_2_date
 .u_boot_list_2_cmd_2_dcache
                0x00000000000739bc       0x18 cmd/built-in.o
                0x00000000000739bc                _u_boot_list_2_cmd_2_dcache
 .u_boot_list_2_cmd_2_dhcp
                0x00000000000739d4       0x18 cmd/built-in.o
                0x00000000000739d4                _u_boot_list_2_cmd_2_dhcp
 .u_boot_list_2_cmd_2_echo
                0x00000000000739ec       0x18 cmd/built-in.o
                0x00000000000739ec                _u_boot_list_2_cmd_2_echo
 .u_boot_list_2_cmd_2_editenv
                0x0000000000073a04       0x18 cmd/built-in.o
                0x0000000000073a04                _u_boot_list_2_cmd_2_editenv
 .u_boot_list_2_cmd_2_env
                0x0000000000073a1c       0x18 cmd/built-in.o
                0x0000000000073a1c                _u_boot_list_2_cmd_2_env
 .u_boot_list_2_cmd_2_erase
                0x0000000000073a34       0x18 cmd/built-in.o
                0x0000000000073a34                _u_boot_list_2_cmd_2_erase
 .u_boot_list_2_cmd_2_exit
                0x0000000000073a4c       0x18 cmd/built-in.o
                0x0000000000073a4c                _u_boot_list_2_cmd_2_exit
 .u_boot_list_2_cmd_2_ext2load
                0x0000000000073a64       0x18 cmd/built-in.o
                0x0000000000073a64                _u_boot_list_2_cmd_2_ext2load
 .u_boot_list_2_cmd_2_ext2ls
                0x0000000000073a7c       0x18 cmd/built-in.o
                0x0000000000073a7c                _u_boot_list_2_cmd_2_ext2ls
 .u_boot_list_2_cmd_2_false
                0x0000000000073a94       0x18 cmd/built-in.o
                0x0000000000073a94                _u_boot_list_2_cmd_2_false
 .u_boot_list_2_cmd_2_fatinfo
                0x0000000000073aac       0x18 cmd/built-in.o
                0x0000000000073aac                _u_boot_list_2_cmd_2_fatinfo
 .u_boot_list_2_cmd_2_fatload
                0x0000000000073ac4       0x18 cmd/built-in.o
                0x0000000000073ac4                _u_boot_list_2_cmd_2_fatload
 .u_boot_list_2_cmd_2_fatls
                0x0000000000073adc       0x18 cmd/built-in.o
                0x0000000000073adc                _u_boot_list_2_cmd_2_fatls
 .u_boot_list_2_cmd_2_fatsize
                0x0000000000073af4       0x18 cmd/built-in.o
                0x0000000000073af4                _u_boot_list_2_cmd_2_fatsize
 .u_boot_list_2_cmd_2_flinfo
                0x0000000000073b0c       0x18 cmd/built-in.o
                0x0000000000073b0c                _u_boot_list_2_cmd_2_flinfo
 .u_boot_list_2_cmd_2_go
                0x0000000000073b24       0x18 cmd/built-in.o
                0x0000000000073b24                _u_boot_list_2_cmd_2_go
 .u_boot_list_2_cmd_2_help
                0x0000000000073b3c       0x18 cmd/built-in.o
                0x0000000000073b3c                _u_boot_list_2_cmd_2_help
 .u_boot_list_2_cmd_2_icache
                0x0000000000073b54       0x18 cmd/built-in.o
                0x0000000000073b54                _u_boot_list_2_cmd_2_icache
 .u_boot_list_2_cmd_2_iminfo
                0x0000000000073b6c       0x18 cmd/built-in.o
                0x0000000000073b6c                _u_boot_list_2_cmd_2_iminfo
 .u_boot_list_2_cmd_2_imls
                0x0000000000073b84       0x18 cmd/built-in.o
                0x0000000000073b84                _u_boot_list_2_cmd_2_imls
 .u_boot_list_2_cmd_2_imxtract
                0x0000000000073b9c       0x18 cmd/built-in.o
                0x0000000000073b9c                _u_boot_list_2_cmd_2_imxtract
 .u_boot_list_2_cmd_2_itest
                0x0000000000073bb4       0x18 cmd/built-in.o
                0x0000000000073bb4                _u_boot_list_2_cmd_2_itest
 .u_boot_list_2_cmd_2_loadb
                0x0000000000073bcc       0x18 cmd/built-in.o
                0x0000000000073bcc                _u_boot_list_2_cmd_2_loadb
 .u_boot_list_2_cmd_2_loads
                0x0000000000073be4       0x18 cmd/built-in.o
                0x0000000000073be4                _u_boot_list_2_cmd_2_loads
 .u_boot_list_2_cmd_2_loadx
                0x0000000000073bfc       0x18 cmd/built-in.o
                0x0000000000073bfc                _u_boot_list_2_cmd_2_loadx
 .u_boot_list_2_cmd_2_loady
                0x0000000000073c14       0x18 cmd/built-in.o
                0x0000000000073c14                _u_boot_list_2_cmd_2_loady
 .u_boot_list_2_cmd_2_loop
                0x0000000000073c2c       0x18 cmd/built-in.o
                0x0000000000073c2c                _u_boot_list_2_cmd_2_loop
 .u_boot_list_2_cmd_2_md
                0x0000000000073c44       0x18 cmd/built-in.o
                0x0000000000073c44                _u_boot_list_2_cmd_2_md
 .u_boot_list_2_cmd_2_mm
                0x0000000000073c5c       0x18 cmd/built-in.o
                0x0000000000073c5c                _u_boot_list_2_cmd_2_mm
 .u_boot_list_2_cmd_2_mtdparts
                0x0000000000073c74       0x18 cmd/built-in.o
                0x0000000000073c74                _u_boot_list_2_cmd_2_mtdparts
 .u_boot_list_2_cmd_2_mw
                0x0000000000073c8c       0x18 cmd/built-in.o
                0x0000000000073c8c                _u_boot_list_2_cmd_2_mw
 .u_boot_list_2_cmd_2_nand
                0x0000000000073ca4       0x18 cmd/built-in.o
                0x0000000000073ca4                _u_boot_list_2_cmd_2_nand
 .u_boot_list_2_cmd_2_nboot
                0x0000000000073cbc       0x18 cmd/built-in.o
                0x0000000000073cbc                _u_boot_list_2_cmd_2_nboot
 .u_boot_list_2_cmd_2_nfs
                0x0000000000073cd4       0x18 cmd/built-in.o
                0x0000000000073cd4                _u_boot_list_2_cmd_2_nfs
 .u_boot_list_2_cmd_2_nm
                0x0000000000073cec       0x18 cmd/built-in.o
                0x0000000000073cec                _u_boot_list_2_cmd_2_nm
 .u_boot_list_2_cmd_2_ping
                0x0000000000073d04       0x18 cmd/built-in.o
                0x0000000000073d04                _u_boot_list_2_cmd_2_ping
 .u_boot_list_2_cmd_2_printenv
                0x0000000000073d1c       0x18 cmd/built-in.o
                0x0000000000073d1c                _u_boot_list_2_cmd_2_printenv
 .u_boot_list_2_cmd_2_protect
                0x0000000000073d34       0x18 cmd/built-in.o
                0x0000000000073d34                _u_boot_list_2_cmd_2_protect
 .u_boot_list_2_cmd_2_question_mark
                0x0000000000073d4c       0x18 cmd/built-in.o
                0x0000000000073d4c                _u_boot_list_2_cmd_2_question_mark
 .u_boot_list_2_cmd_2_reginfo
                0x0000000000073d64       0x18 cmd/built-in.o
                0x0000000000073d64                _u_boot_list_2_cmd_2_reginfo
 .u_boot_list_2_cmd_2_reset
                0x0000000000073d7c       0x18 cmd/built-in.o
                0x0000000000073d7c                _u_boot_list_2_cmd_2_reset
 .u_boot_list_2_cmd_2_run
                0x0000000000073d94       0x18 cmd/built-in.o
                0x0000000000073d94                _u_boot_list_2_cmd_2_run
 .u_boot_list_2_cmd_2_saveenv
                0x0000000000073dac       0x18 cmd/built-in.o
                0x0000000000073dac                _u_boot_list_2_cmd_2_saveenv
 .u_boot_list_2_cmd_2_setenv
                0x0000000000073dc4       0x18 cmd/built-in.o
                0x0000000000073dc4                _u_boot_list_2_cmd_2_setenv
 .u_boot_list_2_cmd_2_showvar
                0x0000000000073ddc       0x18 common/built-in.o
                0x0000000000073ddc                _u_boot_list_2_cmd_2_showvar
 .u_boot_list_2_cmd_2_sleep
                0x0000000000073df4       0x18 cmd/built-in.o
                0x0000000000073df4                _u_boot_list_2_cmd_2_sleep
 .u_boot_list_2_cmd_2_source
                0x0000000000073e0c       0x18 cmd/built-in.o
                0x0000000000073e0c                _u_boot_list_2_cmd_2_source
 .u_boot_list_2_cmd_2_test
                0x0000000000073e24       0x18 cmd/built-in.o
                0x0000000000073e24                _u_boot_list_2_cmd_2_test
 .u_boot_list_2_cmd_2_tftpboot
                0x0000000000073e3c       0x18 cmd/built-in.o
                0x0000000000073e3c                _u_boot_list_2_cmd_2_tftpboot
 .u_boot_list_2_cmd_2_true
                0x0000000000073e54       0x18 cmd/built-in.o
                0x0000000000073e54                _u_boot_list_2_cmd_2_true
 .u_boot_list_2_cmd_2_ubi
                0x0000000000073e6c       0x18 cmd/built-in.o
                0x0000000000073e6c                _u_boot_list_2_cmd_2_ubi
 .u_boot_list_2_cmd_2_ubifsload
                0x0000000000073e84       0x18 cmd/built-in.o
                0x0000000000073e84                _u_boot_list_2_cmd_2_ubifsload
 .u_boot_list_2_cmd_2_ubifsls
                0x0000000000073e9c       0x18 cmd/built-in.o
                0x0000000000073e9c                _u_boot_list_2_cmd_2_ubifsls
 .u_boot_list_2_cmd_2_ubifsmount
                0x0000000000073eb4       0x18 cmd/built-in.o
                0x0000000000073eb4                _u_boot_list_2_cmd_2_ubifsmount
 .u_boot_list_2_cmd_2_ubifsumount
                0x0000000000073ecc       0x18 cmd/built-in.o
                0x0000000000073ecc                _u_boot_list_2_cmd_2_ubifsumount
 .u_boot_list_2_cmd_2_usb
                0x0000000000073ee4       0x18 cmd/built-in.o
                0x0000000000073ee4                _u_boot_list_2_cmd_2_usb
 .u_boot_list_2_cmd_2_usbboot
                0x0000000000073efc       0x18 cmd/built-in.o
                0x0000000000073efc                _u_boot_list_2_cmd_2_usbboot
 .u_boot_list_2_cmd_2_version
                0x0000000000073f14       0x18 cmd/built-in.o
                0x0000000000073f14                _u_boot_list_2_cmd_2_version
 .u_boot_list_2_cmd_2_ydevconfig
                0x0000000000073f2c       0x18 cmd/built-in.o
                0x0000000000073f2c                _u_boot_list_2_cmd_2_ydevconfig
 .u_boot_list_2_cmd_2_ydevls
                0x0000000000073f44       0x18 cmd/built-in.o
                0x0000000000073f44                _u_boot_list_2_cmd_2_ydevls
 .u_boot_list_2_cmd_2_yls
                0x0000000000073f5c       0x18 cmd/built-in.o
                0x0000000000073f5c                _u_boot_list_2_cmd_2_yls
 .u_boot_list_2_cmd_2_ymkdir
                0x0000000000073f74       0x18 cmd/built-in.o
                0x0000000000073f74                _u_boot_list_2_cmd_2_ymkdir
 .u_boot_list_2_cmd_2_ymount
                0x0000000000073f8c       0x18 cmd/built-in.o
                0x0000000000073f8c                _u_boot_list_2_cmd_2_ymount
 .u_boot_list_2_cmd_2_ymv
                0x0000000000073fa4       0x18 cmd/built-in.o
                0x0000000000073fa4                _u_boot_list_2_cmd_2_ymv
 .u_boot_list_2_cmd_2_yrd
                0x0000000000073fbc       0x18 cmd/built-in.o
                0x0000000000073fbc                _u_boot_list_2_cmd_2_yrd
 .u_boot_list_2_cmd_2_yrdm
                0x0000000000073fd4       0x18 cmd/built-in.o
                0x0000000000073fd4                _u_boot_list_2_cmd_2_yrdm
 .u_boot_list_2_cmd_2_yrm
                0x0000000000073fec       0x18 cmd/built-in.o
                0x0000000000073fec                _u_boot_list_2_cmd_2_yrm
 .u_boot_list_2_cmd_2_yrmdir
                0x0000000000074004       0x18 cmd/built-in.o
                0x0000000000074004                _u_boot_list_2_cmd_2_yrmdir
 .u_boot_list_2_cmd_2_ytrace
                0x000000000007401c       0x18 cmd/built-in.o
                0x000000000007401c                _u_boot_list_2_cmd_2_ytrace
 .u_boot_list_2_cmd_2_yumount
                0x0000000000074034       0x18 cmd/built-in.o
                0x0000000000074034                _u_boot_list_2_cmd_2_yumount
 .u_boot_list_2_cmd_2_ywr
                0x000000000007404c       0x18 cmd/built-in.o
                0x000000000007404c                _u_boot_list_2_cmd_2_ywr
 .u_boot_list_2_cmd_2_ywrm
                0x0000000000074064       0x18 cmd/built-in.o
                0x0000000000074064                _u_boot_list_2_cmd_2_ywrm
 .u_boot_list_2_cmd_3
                0x000000000007407c        0x0 cmd/built-in.o
 .u_boot_list_2_cmd_3
                0x000000000007407c        0x0 common/built-in.o
 .u_boot_list_2_env_clbk_1
                0x000000000007407c        0x0 common/built-in.o
 .u_boot_list_2_env_clbk_2_baudrate
                0x000000000007407c        0x8 drivers/serial/built-in.o
                0x000000000007407c                _u_boot_list_2_env_clbk_2_baudrate
 .u_boot_list_2_env_clbk_2_bootfile
                0x0000000000074084        0x8 net/built-in.o
                0x0000000000074084                _u_boot_list_2_env_clbk_2_bootfile
 .u_boot_list_2_env_clbk_2_callbacks
                0x000000000007408c        0x8 common/built-in.o
                0x000000000007408c                _u_boot_list_2_env_clbk_2_callbacks
 .u_boot_list_2_env_clbk_2_console
                0x0000000000074094        0x8 common/built-in.o
                0x0000000000074094                _u_boot_list_2_env_clbk_2_console
 .u_boot_list_2_env_clbk_2_ethaddr
                0x000000000007409c        0x8 net/built-in.o
                0x000000000007409c                _u_boot_list_2_env_clbk_2_ethaddr
 .u_boot_list_2_env_clbk_2_flags
                0x00000000000740a4        0x8 common/built-in.o
                0x00000000000740a4                _u_boot_list_2_env_clbk_2_flags
 .u_boot_list_2_env_clbk_2_gatewayip
                0x00000000000740ac        0x8 net/built-in.o
                0x00000000000740ac                _u_boot_list_2_env_clbk_2_gatewayip
 .u_boot_list_2_env_clbk_2_ipaddr
                0x00000000000740b4        0x8 net/built-in.o
                0x00000000000740b4                _u_boot_list_2_env_clbk_2_ipaddr
 .u_boot_list_2_env_clbk_2_loadaddr
                0x00000000000740bc        0x8 common/built-in.o
                0x00000000000740bc                _u_boot_list_2_env_clbk_2_loadaddr
 .u_boot_list_2_env_clbk_2_netmask
                0x00000000000740c4        0x8 net/built-in.o
                0x00000000000740c4                _u_boot_list_2_env_clbk_2_netmask
 .u_boot_list_2_env_clbk_2_nvlan
                0x00000000000740cc        0x8 net/built-in.o
                0x00000000000740cc                _u_boot_list_2_env_clbk_2_nvlan
 .u_boot_list_2_env_clbk_2_serverip
                0x00000000000740d4        0x8 net/built-in.o
                0x00000000000740d4                _u_boot_list_2_env_clbk_2_serverip
 .u_boot_list_2_env_clbk_2_vlan
                0x00000000000740dc        0x8 net/built-in.o
                0x00000000000740dc                _u_boot_list_2_env_clbk_2_vlan
 .u_boot_list_2_env_clbk_3
                0x00000000000740e4        0x0 common/built-in.o
 .u_boot_list_2_part_driver_1
                0x00000000000740e4        0x0 disk/built-in.o
 .u_boot_list_2_part_driver_2_dos
                0x00000000000740e4       0x14 disk/built-in.o
                0x00000000000740e4                _u_boot_list_2_part_driver_2_dos
 .u_boot_list_2_part_driver_3
                0x00000000000740f8        0x0 disk/built-in.o
                0x00000000000740f8                . = ALIGN (0x4)

.__efi_runtime_start
 *(.__efi_runtime_start)

.efi_runtime
 *(efi_runtime_text)
 *(efi_runtime_data)

.__efi_runtime_stop
 *(.__efi_runtime_stop)

.efi_runtime_rel_start
 *(.__efi_runtime_rel_start)

.efi_runtime_rel
 *(.relefi_runtime_text)
 *(.relefi_runtime_data)

.efi_runtime_rel_stop
 *(.__efi_runtime_rel_stop)
                0x00000000000740f8                . = ALIGN (0x4)

.image_copy_end
                0x00000000000740f8        0x0
 *(.__image_copy_end)
 .__image_copy_end
                0x00000000000740f8        0x0 arch/arm/lib/built-in.o

.rel_dyn_start  0x00000000000740f8        0x0
 *(.__rel_dyn_start)
 .__rel_dyn_start
                0x00000000000740f8        0x0 arch/arm/lib/built-in.o

.rel.dyn        0x00000000000740f8     0x9448
 *(.rel*)
 .rel.got       0x00000000000740f8        0x0 arch/arm/cpu/arm920t/start.o
 .rel.plt       0x00000000000740f8        0x0 arch/arm/cpu/arm920t/start.o
 .rel.iplt      0x00000000000740f8        0x0 arch/arm/cpu/arm920t/start.o
 .rel.text.print_cpuinfo
                0x00000000000740f8       0x20 arch/arm/cpu/arm920t/start.o
 .rel.rodata.freq_f
                0x0000000000074118       0x18 arch/arm/cpu/arm920t/start.o
 .rel.text      0x0000000000074130       0x20 arch/arm/cpu/arm920t/start.o
 .rel.vectors   0x0000000000074150       0x38 arch/arm/cpu/arm920t/start.o
 .rel.text.relocate_vectors
                0x0000000000074188       0x20 arch/arm/cpu/arm920t/start.o
 .rel.text.boot_jump_linux.isra.4
                0x00000000000741a8       0x28 arch/arm/cpu/arm920t/start.o
 .rel.text.boot_prep_linux
                0x00000000000741d0       0x10 arch/arm/cpu/arm920t/start.o
 .rel.text.interrupt_init
                0x00000000000741e0        0x8 arch/arm/cpu/arm920t/start.o
 .rel.text.bad_mode
                0x00000000000741e8        0x8 arch/arm/cpu/arm920t/start.o
 .rel.text.show_regs
                0x00000000000741f0       0x60 arch/arm/cpu/arm920t/start.o
 .rel.text.do_undefined_instruction
                0x0000000000074250        0x8 arch/arm/cpu/arm920t/start.o
 .rel.text.do_software_interrupt
                0x0000000000074258        0x8 arch/arm/cpu/arm920t/start.o
 .rel.text.do_prefetch_abort
                0x0000000000074260        0x8 arch/arm/cpu/arm920t/start.o
 .rel.text.do_data_abort
                0x0000000000074268        0x8 arch/arm/cpu/arm920t/start.o
 .rel.text.do_not_used
                0x0000000000074270        0x8 arch/arm/cpu/arm920t/start.o
 .rel.text.do_fiq
                0x0000000000074278        0x8 arch/arm/cpu/arm920t/start.o
 .rel.text.do_irq
                0x0000000000074280        0x8 arch/arm/cpu/arm920t/start.o
 .rel.text.do_reset
                0x0000000000074288        0x8 arch/arm/cpu/arm920t/start.o
 .rel.text.enable_caches
                0x0000000000074290        0x8 arch/arm/cpu/arm920t/start.o
 .rel.rodata    0x0000000000074298      0x100 arch/arm/cpu/arm920t/start.o
 .rel.text.do_go
                0x0000000000074398       0x10 arch/arm/cpu/arm920t/start.o
 .rel.text.do_bootm
                0x00000000000743a8       0x18 arch/arm/cpu/arm920t/start.o
 .rel.text.do_bootd
                0x00000000000743c0        0x8 arch/arm/cpu/arm920t/start.o
 .rel.text.do_imls
                0x00000000000743c8       0x28 arch/arm/cpu/arm920t/start.o
 .rel.text.image_info
                0x00000000000743f0       0x40 arch/arm/cpu/arm920t/start.o
 .rel.text.do_iminfo
                0x0000000000074430        0x8 arch/arm/cpu/arm920t/start.o
 .rel.text.bootm_maybe_autostart
                0x0000000000074438       0x20 arch/arm/cpu/arm920t/start.o
 .rel.text.do_help
                0x0000000000074458       0x10 arch/arm/cpu/arm920t/start.o
 .rel.text.do_version
                0x0000000000074468       0x20 arch/arm/cpu/arm920t/start.o
 .rel.text.source
                0x0000000000074488       0x38 arch/arm/cpu/arm920t/start.o
 .rel.text.do_source
                0x00000000000744c0        0x8 arch/arm/cpu/arm920t/start.o
 .rel.text.print_num
                0x00000000000744c8        0x8 arch/arm/cpu/arm920t/start.o
 .rel.text.do_bdinfo
                0x00000000000744d0       0x98 arch/arm/cpu/arm920t/start.o
 .rel.text.parse_argv
                0x0000000000074568       0x18 arch/arm/cpu/arm920t/start.o
 .rel.text.invalidate_icache_all
                0x0000000000074580        0x8 arch/arm/cpu/arm920t/start.o
 .rel.text.do_icache
                0x0000000000074588       0x18 arch/arm/cpu/arm920t/start.o
 .rel.text.flush_dcache_all
                0x00000000000745a0        0x0 arch/arm/cpu/arm920t/start.o
 .rel.text.do_dcache
                0x00000000000745a0       0x18 arch/arm/cpu/arm920t/start.o
 .rel.text.do_coninfo
                0x00000000000745b8       0x28 arch/arm/cpu/arm920t/start.o
 .rel.text.do_date
                0x00000000000745e0       0x50 arch/arm/cpu/arm920t/start.o
 .rel.text.do_echo
                0x0000000000074630        0x8 arch/arm/cpu/arm920t/start.o
 .rel.text.valid_elf_image
                0x0000000000074638       0x10 arch/arm/cpu/arm920t/start.o
 .rel.text.do_bootelf
                0x0000000000074648       0x28 arch/arm/cpu/arm920t/start.o
 .rel.text.do_bootvx
                0x0000000000074670       0xe0 arch/arm/cpu/arm920t/start.o
 .rel.text.do_fat_fsinfo
                0x0000000000074750       0x10 arch/arm/cpu/arm920t/start.o
 .rel.text.flash_fill_sect_ranges
                0x0000000000074760       0x28 arch/arm/cpu/arm920t/start.o
 .rel.text.abbrev_spec
                0x0000000000074788        0x8 arch/arm/cpu/arm920t/start.o
 .rel.text.do_flinfo
                0x0000000000074790       0x18 arch/arm/cpu/arm920t/start.o
 .rel.text.flash_sect_roundb
                0x00000000000747a8       0x18 arch/arm/cpu/arm920t/start.o
 .rel.text.flash_sect_erase
                0x00000000000747c0       0x18 arch/arm/cpu/arm920t/start.o
 .rel.text.do_flerase
                0x00000000000747d8       0x50 arch/arm/cpu/arm920t/start.o
 .rel.text.flash_sect_protect
                0x0000000000074828       0x28 arch/arm/cpu/arm920t/start.o
 .rel.text.do_protect
                0x0000000000074850       0x88 arch/arm/cpu/arm920t/start.o
 .rel.text.binary_test
                0x00000000000748d8       0x70 arch/arm/cpu/arm920t/start.o
 .rel.text.do_itest
                0x0000000000074948       0x40 arch/arm/cpu/arm920t/start.o
 .rel.text.bin_data_init
                0x0000000000074988       0x18 arch/arm/cpu/arm920t/start.o
 .rel.text.k_data_save
                0x00000000000749a0       0x30 arch/arm/cpu/arm920t/start.o
 .rel.text.k_data_restore
                0x00000000000749d0       0x30 arch/arm/cpu/arm920t/start.o
 .rel.text.load_serial_ymodem
                0x0000000000074a00       0x20 arch/arm/cpu/arm920t/start.o
 .rel.text.bin_data_char
                0x0000000000074a20       0x10 arch/arm/cpu/arm920t/start.o
 .rel.text.chk1.constprop.1
                0x0000000000074a30        0x8 arch/arm/cpu/arm920t/start.o
 .rel.text.s1_sendpacket.constprop.2
                0x0000000000074a38       0x18 arch/arm/cpu/arm920t/start.o
 .rel.text.load_serial
                0x0000000000074a50       0x68 arch/arm/cpu/arm920t/start.o
 .rel.text.do_load_serial
                0x0000000000074ab8       0x30 arch/arm/cpu/arm920t/start.o
 .rel.text.do_load_serial_bin
                0x0000000000074ae8       0xe8 arch/arm/cpu/arm920t/start.o
 .rel.text.do_mem_mw
                0x0000000000074bd0        0x8 arch/arm/cpu/arm920t/start.o
 .rel.text.do_mem_md
                0x0000000000074bd8       0x20 arch/arm/cpu/arm920t/start.o
 .rel.text.do_mem_cmp
                0x0000000000074bf8       0x38 arch/arm/cpu/arm920t/start.o
 .rel.text.do_mem_base
                0x0000000000074c30       0x10 arch/arm/cpu/arm920t/start.o
 .rel.text.do_mem_cp
                0x0000000000074c40       0x20 arch/arm/cpu/arm920t/start.o
 .rel.text.do_mem_crc
                0x0000000000074c60        0x8 arch/arm/cpu/arm920t/start.o
 .rel.text.mod_mem.isra.0
                0x0000000000074c68       0x48 arch/arm/cpu/arm920t/start.o
 .rel.text.mtd_part_info
                0x0000000000074cb0       0x20 arch/arm/cpu/arm920t/start.o
 .rel.text.memsize_format
                0x0000000000074cd0       0x20 arch/arm/cpu/arm920t/start.o
 .rel.text.index_partitions
                0x0000000000074cf0       0x28 arch/arm/cpu/arm920t/start.o
 .rel.text.current_save
                0x0000000000074d18       0x40 arch/arm/cpu/arm920t/start.o
 .rel.text.part_sort_add
                0x0000000000074d58       0x18 arch/arm/cpu/arm920t/start.o
 .rel.text.device_del
                0x0000000000074d70       0x18 arch/arm/cpu/arm920t/start.o
 .rel.text.generate_mtdparts_save.constprop.6
                0x0000000000074d88       0x28 arch/arm/cpu/arm920t/start.o
 .rel.text.device_delall.constprop.8
                0x0000000000074db0        0x8 arch/arm/cpu/arm920t/start.o
 .rel.text.mtd_devices_init
                0x0000000000074db8       0x10 arch/arm/cpu/arm920t/start.o
 .rel.text.get_mtd_info.constprop.9
                0x0000000000074dc8       0x28 arch/arm/cpu/arm920t/start.o
 .rel.text.part_validate
                0x0000000000074df0       0x48 arch/arm/cpu/arm920t/start.o
 .rel.text.device_find
                0x0000000000074e38        0x8 arch/arm/cpu/arm920t/start.o
 .rel.text.device_parse
                0x0000000000074e40       0x80 arch/arm/cpu/arm920t/start.o
 .rel.text.mtd_id_parse
                0x0000000000074ec0       0x30 arch/arm/cpu/arm920t/start.o
 .rel.text.find_dev_and_part
                0x0000000000074ef0       0x40 arch/arm/cpu/arm920t/start.o
 .rel.text.mtdparts_init
                0x0000000000074f30       0xd8 arch/arm/cpu/arm920t/start.o
 .rel.text.do_chpart
                0x0000000000075008       0x38 arch/arm/cpu/arm920t/start.o
 .rel.text.do_mtdparts
                0x0000000000075040      0x100 arch/arm/cpu/arm920t/start.o
 .rel.text.set_dev
                0x0000000000075140       0x28 arch/arm/cpu/arm920t/start.o
 .rel.text.nand_print_and_set_info
                0x0000000000075168       0x68 arch/arm/cpu/arm920t/start.o
 .rel.text.do_nand
                0x00000000000751d0      0x190 arch/arm/cpu/arm920t/start.o
 .rel.text.nand_load_image
                0x0000000000075360       0x40 arch/arm/cpu/arm920t/start.o
 .rel.text.do_nandboot
                0x00000000000753a0       0x48 arch/arm/cpu/arm920t/start.o
 .rel.text.netboot_common
                0x00000000000753e8       0x98 arch/arm/cpu/arm920t/start.o
 .rel.text.do_ping
                0x0000000000075480       0x18 arch/arm/cpu/arm920t/start.o
 .rel.text.do_test
                0x0000000000075498       0x70 arch/arm/cpu/arm920t/start.o
 .rel.text.ubi_find_volume
                0x0000000000075508       0x10 arch/arm/cpu/arm920t/start.o
 .rel.text.ubi_volume_continue_write
                0x0000000000075518       0x10 arch/arm/cpu/arm920t/start.o
 .rel.text.ubi_volume_begin_write
                0x0000000000075528       0x18 arch/arm/cpu/arm920t/start.o
 .rel.text.ubi_volume_read
                0x0000000000075540       0x38 arch/arm/cpu/arm920t/start.o
 .rel.text.ubi_part
                0x0000000000075578       0x78 arch/arm/cpu/arm920t/start.o
 .rel.text.do_ubi
                0x00000000000755f0      0x180 arch/arm/cpu/arm920t/start.o
 .rel.text.do_ubifs_mount
                0x0000000000075770       0x10 arch/arm/cpu/arm920t/start.o
 .rel.text.do_ubifs_ls
                0x0000000000075780       0x20 arch/arm/cpu/arm920t/start.o
 .rel.text.do_ubifs_load
                0x00000000000757a0       0x18 arch/arm/cpu/arm920t/start.o
 .rel.text.ubifs_is_mounted
                0x00000000000757b8        0x8 arch/arm/cpu/arm920t/start.o
 .rel.text.cmd_ubifs_umount
                0x00000000000757c0       0x10 arch/arm/cpu/arm920t/start.o
 .rel.text.do_ubifs_umount
                0x00000000000757d0       0x10 arch/arm/cpu/arm920t/start.o
 .rel.text.usb_get_class_desc
                0x00000000000757e0       0x50 arch/arm/cpu/arm920t/start.o
 .rel.text.usb_show_tree_graph
                0x0000000000075830       0x48 arch/arm/cpu/arm920t/start.o
 .rel.text.usb_display_class_sub
                0x0000000000075878       0xc8 arch/arm/cpu/arm920t/start.o
 .rel.text.usb_display_string
                0x0000000000075940        0x8 arch/arm/cpu/arm920t/start.o
 .rel.text.usb_display_config
                0x0000000000075948       0xa8 arch/arm/cpu/arm920t/start.o
 .rel.text.do_usbboot
                0x00000000000759f0        0x8 arch/arm/cpu/arm920t/start.o
 .rel.text.usb_display_desc.part.0
                0x00000000000759f8       0x38 arch/arm/cpu/arm920t/start.o
 .rel.text.do_usb_start
                0x0000000000075a30        0x8 arch/arm/cpu/arm920t/start.o
 .rel.text.do_usb
                0x0000000000075a38      0x178 arch/arm/cpu/arm920t/start.o
 .rel.text.do_imgextract
                0x0000000000075bb0       0x98 arch/arm/cpu/arm920t/start.o
 .rel.text.do_ydevconfig
                0x0000000000075c48        0x8 arch/arm/cpu/arm920t/start.o
 .rel.text.do_ymount
                0x0000000000075c50       0x10 arch/arm/cpu/arm920t/start.o
 .rel.text.do_yumount
                0x0000000000075c60       0x10 arch/arm/cpu/arm920t/start.o
 .rel.text.do_yls
                0x0000000000075c70       0x10 arch/arm/cpu/arm920t/start.o
 .rel.text.do_yrd
                0x0000000000075c80       0x18 arch/arm/cpu/arm920t/start.o
 .rel.text.do_ywr
                0x0000000000075c98       0x18 arch/arm/cpu/arm920t/start.o
 .rel.text.do_yrdm
                0x0000000000075cb0        0x8 arch/arm/cpu/arm920t/start.o
 .rel.text.do_ywrm
                0x0000000000075cb8        0x8 arch/arm/cpu/arm920t/start.o
 .rel.text.do_ymkdir
                0x0000000000075cc0        0x8 arch/arm/cpu/arm920t/start.o
 .rel.text.do_yrmdir
                0x0000000000075cc8        0x8 arch/arm/cpu/arm920t/start.o
 .rel.text.do_yrm
                0x0000000000075cd0        0x8 arch/arm/cpu/arm920t/start.o
 .rel.text.do_ymv
                0x0000000000075cd8        0x8 arch/arm/cpu/arm920t/start.o
 .rel.text.do_env_delete
                0x0000000000075ce0       0x10 arch/arm/cpu/arm920t/start.o
 .rel.text.do_env_exists
                0x0000000000075cf0        0x8 arch/arm/cpu/arm920t/start.o
 .rel.text.do_env_save
                0x0000000000075cf8       0x10 arch/arm/cpu/arm920t/start.o
 .rel.text.do_env
                0x0000000000075d08        0x8 arch/arm/cpu/arm920t/start.o
 .rel.text.env_print
                0x0000000000075d10       0x18 arch/arm/cpu/arm920t/start.o
 .rel.text.do_env_print
                0x0000000000075d28       0x10 arch/arm/cpu/arm920t/start.o
 .rel.text.do_env_import
                0x0000000000075d38       0x58 arch/arm/cpu/arm920t/start.o
 .rel.text.do_env_default
                0x0000000000075d90        0x8 arch/arm/cpu/arm920t/start.o
 .rel.text._do_env_set.isra.0
                0x0000000000075d98       0x30 arch/arm/cpu/arm920t/start.o
 .rel.text.get_env_id
                0x0000000000075dc8        0x8 arch/arm/cpu/arm920t/start.o
 .rel.text.setenv
                0x0000000000075dd0        0x8 arch/arm/cpu/arm920t/start.o
 .rel.text.setenv_hex
                0x0000000000075dd8        0x8 arch/arm/cpu/arm920t/start.o
 .rel.text.do_env_export
                0x0000000000075de0       0x40 arch/arm/cpu/arm920t/start.o
 .rel.text.getenv_f
                0x0000000000075e20        0x8 arch/arm/cpu/arm920t/start.o
 .rel.text.getenv
                0x0000000000075e28        0x8 arch/arm/cpu/arm920t/start.o
 .rel.text.do_env_edit.part.2
                0x0000000000075e30       0x18 arch/arm/cpu/arm920t/start.o
 .rel.text.common_diskboot
                0x0000000000075e48       0x28 arch/arm/cpu/arm920t/start.o
 .rel.rodata.weekdays
                0x0000000000075e70       0x38 arch/arm/cpu/arm920t/start.o
 .rel.rodata.op_table
                0x0000000000075ea8       0x68 arch/arm/cpu/arm920t/start.o
 .rel.rodata.op_adv
                0x0000000000075f10       0x80 arch/arm/cpu/arm920t/start.o
 .rel.rodata.CSWTCH.31
                0x0000000000075f90       0x28 arch/arm/cpu/arm920t/start.o
 .rel.u_boot_list_2_cmd_2_go
                0x0000000000075fb8       0x20 arch/arm/cpu/arm920t/start.o
 .rel.u_boot_list_2_cmd_2_reset
                0x0000000000075fd8       0x20 arch/arm/cpu/arm920t/start.o
 .rel.u_boot_list_2_cmd_2_iminfo
                0x0000000000075ff8       0x20 arch/arm/cpu/arm920t/start.o
 .rel.u_boot_list_2_cmd_2_boot
                0x0000000000076018       0x20 arch/arm/cpu/arm920t/start.o
 .rel.u_boot_list_2_cmd_2_imls
                0x0000000000076038       0x20 arch/arm/cpu/arm920t/start.o
 .rel.u_boot_list_2_cmd_2_bootd
                0x0000000000076058       0x20 arch/arm/cpu/arm920t/start.o
 .rel.u_boot_list_2_cmd_2_bootm
                0x0000000000076078       0x20 arch/arm/cpu/arm920t/start.o
 .rel.data.cmd_bootm_sub
                0x0000000000076098       0xc0 arch/arm/cpu/arm920t/start.o
 .rel.u_boot_list_2_cmd_2_question_mark
                0x0000000000076158       0x20 arch/arm/cpu/arm920t/start.o
 .rel.u_boot_list_2_cmd_2_help
                0x0000000000076178       0x20 arch/arm/cpu/arm920t/start.o
 .rel.u_boot_list_2_cmd_2_version
                0x0000000000076198       0x20 arch/arm/cpu/arm920t/start.o
 .rel.u_boot_list_2_cmd_2_source
                0x00000000000761b8       0x20 arch/arm/cpu/arm920t/start.o
 .rel.u_boot_list_2_cmd_2_bdinfo
                0x00000000000761d8       0x20 arch/arm/cpu/arm920t/start.o
 .rel.u_boot_list_2_cmd_2_icache
                0x00000000000761f8       0x20 arch/arm/cpu/arm920t/start.o
 .rel.u_boot_list_2_cmd_2_dcache
                0x0000000000076218       0x20 arch/arm/cpu/arm920t/start.o
 .rel.u_boot_list_2_cmd_2_coninfo
                0x0000000000076238       0x20 arch/arm/cpu/arm920t/start.o
 .rel.u_boot_list_2_cmd_2_date
                0x0000000000076258       0x20 arch/arm/cpu/arm920t/start.o
 .rel.u_boot_list_2_cmd_2_echo
                0x0000000000076278       0x20 arch/arm/cpu/arm920t/start.o
 .rel.u_boot_list_2_cmd_2_bootelf
                0x0000000000076298       0x20 arch/arm/cpu/arm920t/start.o
 .rel.u_boot_list_2_cmd_2_bootvx
                0x00000000000762b8       0x20 arch/arm/cpu/arm920t/start.o
 .rel.u_boot_list_2_cmd_2_exit
                0x00000000000762d8       0x20 arch/arm/cpu/arm920t/start.o
 .rel.u_boot_list_2_cmd_2_ext2ls
                0x00000000000762f8       0x20 arch/arm/cpu/arm920t/start.o
 .rel.u_boot_list_2_cmd_2_ext2load
                0x0000000000076318       0x20 arch/arm/cpu/arm920t/start.o
 .rel.u_boot_list_2_cmd_2_fatinfo
                0x0000000000076338       0x20 arch/arm/cpu/arm920t/start.o
 .rel.u_boot_list_2_cmd_2_fatsize
                0x0000000000076358       0x20 arch/arm/cpu/arm920t/start.o
 .rel.u_boot_list_2_cmd_2_fatload
                0x0000000000076378       0x20 arch/arm/cpu/arm920t/start.o
 .rel.u_boot_list_2_cmd_2_fatls
                0x0000000000076398       0x20 arch/arm/cpu/arm920t/start.o
 .rel.u_boot_list_2_cmd_2_protect
                0x00000000000763b8       0x20 arch/arm/cpu/arm920t/start.o
 .rel.u_boot_list_2_cmd_2_erase
                0x00000000000763d8       0x20 arch/arm/cpu/arm920t/start.o
 .rel.u_boot_list_2_cmd_2_flinfo
                0x00000000000763f8       0x20 arch/arm/cpu/arm920t/start.o
 .rel.u_boot_list_2_cmd_2_itest
                0x0000000000076418       0x20 arch/arm/cpu/arm920t/start.o
 .rel.u_boot_list_2_cmd_2_loadb
                0x0000000000076438       0x20 arch/arm/cpu/arm920t/start.o
 .rel.u_boot_list_2_cmd_2_loads
                0x0000000000076458       0x20 arch/arm/cpu/arm920t/start.o
 .rel.u_boot_list_2_cmd_2_loadx
                0x0000000000076478       0x20 arch/arm/cpu/arm920t/start.o
 .rel.u_boot_list_2_cmd_2_loady
                0x0000000000076498       0x20 arch/arm/cpu/arm920t/start.o
 .rel.u_boot_list_2_cmd_2_base
                0x00000000000764b8       0x20 arch/arm/cpu/arm920t/start.o
 .rel.u_boot_list_2_cmd_2_cmp
                0x00000000000764d8       0x20 arch/arm/cpu/arm920t/start.o
 .rel.u_boot_list_2_cmd_2_nm
                0x00000000000764f8       0x20 arch/arm/cpu/arm920t/start.o
 .rel.u_boot_list_2_cmd_2_loop
                0x0000000000076518       0x20 arch/arm/cpu/arm920t/start.o
 .rel.u_boot_list_2_cmd_2_cp
                0x0000000000076538       0x20 arch/arm/cpu/arm920t/start.o
 .rel.u_boot_list_2_cmd_2_mm
                0x0000000000076558       0x20 arch/arm/cpu/arm920t/start.o
 .rel.u_boot_list_2_cmd_2_crc32
                0x0000000000076578       0x20 arch/arm/cpu/arm920t/start.o
 .rel.u_boot_list_2_cmd_2_md
                0x0000000000076598       0x20 arch/arm/cpu/arm920t/start.o
 .rel.u_boot_list_2_cmd_2_mw
                0x00000000000765b8       0x20 arch/arm/cpu/arm920t/start.o
 .rel.u_boot_list_2_cmd_2_sleep
                0x00000000000765d8       0x20 arch/arm/cpu/arm920t/start.o
 .rel.u_boot_list_2_cmd_2_mtdparts
                0x00000000000765f8       0x20 arch/arm/cpu/arm920t/start.o
 .rel.u_boot_list_2_cmd_2_chpart
                0x0000000000076618       0x20 arch/arm/cpu/arm920t/start.o
 .rel.u_boot_list_2_cmd_2_nboot
                0x0000000000076638       0x20 arch/arm/cpu/arm920t/start.o
 .rel.u_boot_list_2_cmd_2_nand
                0x0000000000076658       0x20 arch/arm/cpu/arm920t/start.o
 .rel.u_boot_list_2_cmd_2_ping
                0x0000000000076678       0x20 arch/arm/cpu/arm920t/start.o
 .rel.u_boot_list_2_cmd_2_dhcp
                0x0000000000076698       0x20 arch/arm/cpu/arm920t/start.o
 .rel.u_boot_list_2_cmd_2_bootp
                0x00000000000766b8       0x20 arch/arm/cpu/arm920t/start.o
 .rel.u_boot_list_2_cmd_2_tftpboot
                0x00000000000766d8       0x20 arch/arm/cpu/arm920t/start.o
 .rel.u_boot_list_2_cmd_2_nfs
                0x00000000000766f8       0x20 arch/arm/cpu/arm920t/start.o
 .rel.u_boot_list_2_cmd_2_reginfo
                0x0000000000076718       0x20 arch/arm/cpu/arm920t/start.o
 .rel.u_boot_list_2_cmd_2_test
                0x0000000000076738       0x20 arch/arm/cpu/arm920t/start.o
 .rel.u_boot_list_2_cmd_2_true
                0x0000000000076758       0x18 arch/arm/cpu/arm920t/start.o
 .rel.u_boot_list_2_cmd_2_false
                0x0000000000076770       0x18 arch/arm/cpu/arm920t/start.o
 .rel.u_boot_list_2_cmd_2_ubi
                0x0000000000076788       0x20 arch/arm/cpu/arm920t/start.o
 .rel.u_boot_list_2_cmd_2_ubifsumount
                0x00000000000767a8       0x20 arch/arm/cpu/arm920t/start.o
 .rel.u_boot_list_2_cmd_2_ubifsload
                0x00000000000767c8       0x20 arch/arm/cpu/arm920t/start.o
 .rel.u_boot_list_2_cmd_2_ubifsls
                0x00000000000767e8       0x20 arch/arm/cpu/arm920t/start.o
 .rel.u_boot_list_2_cmd_2_ubifsmount
                0x0000000000076808       0x20 arch/arm/cpu/arm920t/start.o
 .rel.u_boot_list_2_cmd_2_usb
                0x0000000000076828       0x20 arch/arm/cpu/arm920t/start.o
 .rel.u_boot_list_2_cmd_2_usbboot
                0x0000000000076848       0x20 arch/arm/cpu/arm920t/start.o
 .rel.u_boot_list_2_cmd_2_imxtract
                0x0000000000076868       0x20 arch/arm/cpu/arm920t/start.o
 .rel.u_boot_list_2_cmd_2_ymv
                0x0000000000076888       0x20 arch/arm/cpu/arm920t/start.o
 .rel.u_boot_list_2_cmd_2_ydevls
                0x00000000000768a8       0x20 arch/arm/cpu/arm920t/start.o
 .rel.u_boot_list_2_cmd_2_ydevconfig
                0x00000000000768c8       0x20 arch/arm/cpu/arm920t/start.o
 .rel.u_boot_list_2_cmd_2_yrd
                0x00000000000768e8       0x20 arch/arm/cpu/arm920t/start.o
 .rel.u_boot_list_2_cmd_2_yrdm
                0x0000000000076908       0x20 arch/arm/cpu/arm920t/start.o
 .rel.u_boot_list_2_cmd_2_ytrace
                0x0000000000076928       0x20 arch/arm/cpu/arm920t/start.o
 .rel.u_boot_list_2_cmd_2_ymount
                0x0000000000076948       0x20 arch/arm/cpu/arm920t/start.o
 .rel.u_boot_list_2_cmd_2_yumount
                0x0000000000076968       0x20 arch/arm/cpu/arm920t/start.o
 .rel.u_boot_list_2_cmd_2_ywr
                0x0000000000076988       0x20 arch/arm/cpu/arm920t/start.o
 .rel.u_boot_list_2_cmd_2_yrm
                0x00000000000769a8       0x20 arch/arm/cpu/arm920t/start.o
 .rel.u_boot_list_2_cmd_2_ywrm
                0x00000000000769c8       0x20 arch/arm/cpu/arm920t/start.o
 .rel.u_boot_list_2_cmd_2_yrmdir
                0x00000000000769e8       0x20 arch/arm/cpu/arm920t/start.o
 .rel.u_boot_list_2_cmd_2_yls
                0x0000000000076a08       0x20 arch/arm/cpu/arm920t/start.o
 .rel.u_boot_list_2_cmd_2_ymkdir
                0x0000000000076a28       0x20 arch/arm/cpu/arm920t/start.o
 .rel.u_boot_list_2_cmd_2_setenv
                0x0000000000076a48       0x20 arch/arm/cpu/arm920t/start.o
 .rel.u_boot_list_2_cmd_2_env
                0x0000000000076a68       0x20 arch/arm/cpu/arm920t/start.o
 .rel.u_boot_list_2_cmd_2_saveenv
                0x0000000000076a88       0x20 arch/arm/cpu/arm920t/start.o
 .rel.data.cmd_env_sub
                0x0000000000076aa8      0x140 arch/arm/cpu/arm920t/start.o
 .rel.u_boot_list_2_cmd_2_printenv
                0x0000000000076be8       0x20 arch/arm/cpu/arm920t/start.o
 .rel.u_boot_list_2_cmd_2_editenv
                0x0000000000076c08       0x20 arch/arm/cpu/arm920t/start.o
 .rel.u_boot_list_2_cmd_2_run
                0x0000000000076c28       0x20 arch/arm/cpu/arm920t/start.o
 .rel.text.main_loop
                0x0000000000076c48        0x8 arch/arm/cpu/arm920t/start.o
 .rel.text.jumptable_init
                0x0000000000076c50       0xb8 arch/arm/cpu/arm920t/start.o
 .rel.text.hash_lookup_algo
                0x0000000000076d08        0x0 arch/arm/cpu/arm920t/start.o
 .rel.text.hash_progressive_lookup_algo
                0x0000000000076d08        0x0 arch/arm/cpu/arm920t/start.o
 .rel.text.hash_command
                0x0000000000076d08        0x8 arch/arm/cpu/arm920t/start.o
 .rel.text.mapset
                0x0000000000076d10        0x8 arch/arm/cpu/arm920t/start.o
 .rel.text.syntax_err
                0x0000000000076d18        0x8 arch/arm/cpu/arm920t/start.o
 .rel.text.xmalloc
                0x0000000000076d20        0x8 arch/arm/cpu/arm920t/start.o
 .rel.text.xrealloc
                0x0000000000076d28        0x8 arch/arm/cpu/arm920t/start.o
 .rel.text.done_word
                0x0000000000076d30        0x8 arch/arm/cpu/arm920t/start.o
 .rel.text.do_showvar
                0x0000000000076d38       0x20 arch/arm/cpu/arm920t/start.o
 .rel.text.is_assignment
                0x0000000000076d58        0x8 arch/arm/cpu/arm920t/start.o
 .rel.text.file_get
                0x0000000000076d60       0x38 arch/arm/cpu/arm920t/start.o
 .rel.text.b_addqchr
                0x0000000000076d98        0x8 arch/arm/cpu/arm920t/start.o
 .rel.text.get_local_var
                0x0000000000076da0       0x20 arch/arm/cpu/arm920t/start.o
 .rel.text.set_local_var
                0x0000000000076dc0       0x20 arch/arm/cpu/arm920t/start.o
 .rel.text.insert_var_value_sub
                0x0000000000076de0        0x8 arch/arm/cpu/arm920t/start.o
 .rel.text.unset_local_var
                0x0000000000076de8        0x0 arch/arm/cpu/arm920t/start.o
 .rel.text.parse_string_outer
                0x0000000000076de8       0x18 arch/arm/cpu/arm920t/start.o
 .rel.text.run_list_real
                0x0000000000076e00       0x40 arch/arm/cpu/arm920t/start.o
 .rel.text.parse_stream_outer
                0x0000000000076e40       0x68 arch/arm/cpu/arm920t/start.o
 .rel.text.parse_file_outer
                0x0000000000076ea8       0x10 arch/arm/cpu/arm920t/start.o
 .rel.text.u_boot_hush_start
                0x0000000000076eb8       0x18 arch/arm/cpu/arm920t/start.o
 .rel.text.bootdelay_process
                0x0000000000076ed0       0x18 arch/arm/cpu/arm920t/start.o
 .rel.text.autoboot_command
                0x0000000000076ee8       0x20 arch/arm/cpu/arm920t/start.o
 .rel.text.bootretry_init_cmd_timeout
                0x0000000000076f08       0x10 arch/arm/cpu/arm920t/start.o
 .rel.text.bootretry_reset_cmd_timeout
                0x0000000000076f18       0x10 arch/arm/cpu/arm920t/start.o
 .rel.text.bootretry_tstc_timeout
                0x0000000000076f28       0x10 arch/arm/cpu/arm920t/start.o
 .rel.text.bootretry_dont_retry
                0x0000000000076f38        0x0 arch/arm/cpu/arm920t/start.o
 .rel.text.setup_mon_len
                0x0000000000076f38       0x10 arch/arm/cpu/arm920t/start.o
 .rel.text.announce_dram_init
                0x0000000000076f48        0x8 arch/arm/cpu/arm920t/start.o
 .rel.text.init_baud_rate
                0x0000000000076f50        0x8 arch/arm/cpu/arm920t/start.o
 .rel.text.show_dram_config
                0x0000000000076f58        0x8 arch/arm/cpu/arm920t/start.o
 .rel.text.board_init_f
                0x0000000000076f60        0x8 arch/arm/cpu/arm920t/start.o
 .rel.text.initr_reloc_global_data
                0x0000000000076f68       0x18 arch/arm/cpu/arm920t/start.o
 .rel.text.initr_net
                0x0000000000076f80        0x8 arch/arm/cpu/arm920t/start.o
 .rel.text.initr_ethaddr
                0x0000000000076f88        0x8 arch/arm/cpu/arm920t/start.o
 .rel.text.initr_env
                0x0000000000076f90       0x10 arch/arm/cpu/arm920t/start.o
 .rel.text.initr_nand
                0x0000000000076fa0        0x8 arch/arm/cpu/arm920t/start.o
 .rel.text.initr_flash
                0x0000000000076fa8       0x20 arch/arm/cpu/arm920t/start.o
 .rel.text.board_init_r
                0x0000000000076fc8        0x8 arch/arm/cpu/arm920t/start.o
 .rel.text.bootm_find_images
                0x0000000000076fd0       0x18 arch/arm/cpu/arm920t/start.o
 .rel.text.bootm_decomp_image
                0x0000000000076fe8       0x68 arch/arm/cpu/arm920t/start.o
 .rel.text.do_bootm_states
                0x0000000000077050       0xb8 arch/arm/cpu/arm920t/start.o
 .rel.text.do_bootm_rtems
                0x0000000000077108        0x8 arch/arm/cpu/arm920t/start.o
 .rel.text.do_bootm_plan9
                0x0000000000077110       0x18 arch/arm/cpu/arm920t/start.o
 .rel.text.do_bootm_standalone
                0x0000000000077128       0x18 arch/arm/cpu/arm920t/start.o
 .rel.text.do_bootm_qnxelf
                0x0000000000077140        0x8 arch/arm/cpu/arm920t/start.o
 .rel.text.do_bootm_netbsd
                0x0000000000077148       0x18 arch/arm/cpu/arm920t/start.o
 .rel.text.do_bootvx_fdt
                0x0000000000077160       0x10 arch/arm/cpu/arm920t/start.o
 .rel.text.bootm_os_get_boot_func
                0x0000000000077170        0x8 arch/arm/cpu/arm920t/start.o
 .rel.text.regex_callback
                0x0000000000077178       0x10 arch/arm/cpu/arm920t/start.o
 .rel.text.env_attr_lookup
                0x0000000000077188        0x8 arch/arm/cpu/arm920t/start.o
 .rel.text.find_env_callback
                0x0000000000077190       0x10 arch/arm/cpu/arm920t/start.o
 .rel.text.on_callbacks
                0x00000000000771a0       0x20 arch/arm/cpu/arm920t/start.o
 .rel.text.set_callback
                0x00000000000771c0        0x8 arch/arm/cpu/arm920t/start.o
 .rel.text.env_callback_init
                0x00000000000771c8       0x20 arch/arm/cpu/arm920t/start.o
 .rel.text.skip_num
                0x00000000000771e8        0x8 arch/arm/cpu/arm920t/start.o
 .rel.text.on_flags
                0x00000000000771f0       0x20 arch/arm/cpu/arm920t/start.o
 .rel.text.env_flags_parse_vartype
                0x0000000000077210       0x10 arch/arm/cpu/arm920t/start.o
 .rel.text.env_flags_parse_varaccess
                0x0000000000077220       0x10 arch/arm/cpu/arm920t/start.o
 .rel.text.set_flags
                0x0000000000077230       0x10 arch/arm/cpu/arm920t/start.o
 .rel.text.env_flags_parse_varaccess_from_binflags
                0x0000000000077240        0x0 arch/arm/cpu/arm920t/start.o
 .rel.text.env_flags_init
                0x0000000000077240       0x30 arch/arm/cpu/arm920t/start.o
 .rel.text.env_flags_validate
                0x0000000000077270       0x68 arch/arm/cpu/arm920t/start.o
 .rel.text.env_init
                0x00000000000772d8       0x10 arch/arm/cpu/arm920t/start.o
 .rel.text.saveenv
                0x00000000000772e8       0x18 arch/arm/cpu/arm920t/start.o
 .rel.text.usb_stop
                0x0000000000077300       0x18 arch/arm/cpu/arm920t/start.o
 .rel.text.usb_detect_change
                0x0000000000077318        0x0 arch/arm/cpu/arm920t/start.o
 .rel.text.usb_disable_asynch
                0x0000000000077318        0x8 arch/arm/cpu/arm920t/start.o
 .rel.text.usb_control_msg
                0x0000000000077320        0x8 arch/arm/cpu/arm920t/start.o
 .rel.text.get_descriptor_len
                0x0000000000077328       0x10 arch/arm/cpu/arm920t/start.o
 .rel.text.usb_string_sub
                0x0000000000077338        0x8 arch/arm/cpu/arm920t/start.o
 .rel.text.usb_get_configuration_len
                0x0000000000077340       0x10 arch/arm/cpu/arm920t/start.o
 .rel.text.usb_set_interface
                0x0000000000077350        0x8 arch/arm/cpu/arm920t/start.o
 .rel.text.usb_get_dev_index
                0x0000000000077358        0x8 arch/arm/cpu/arm920t/start.o
 .rel.text.usb_alloc_new_device
                0x0000000000077360       0x18 arch/arm/cpu/arm920t/start.o
 .rel.text.usb_free_device
                0x0000000000077378       0x10 arch/arm/cpu/arm920t/start.o
 .rel.text.usb_select_config
                0x0000000000077388       0x70 arch/arm/cpu/arm920t/start.o
 .rel.text.usb_setup_device
                0x00000000000773f8       0x18 arch/arm/cpu/arm920t/start.o
 .rel.text.usb_init
                0x0000000000077410       0x58 arch/arm/cpu/arm920t/start.o
 .rel.text.usb_find_usb2_hub_address_port
                0x0000000000077468        0x0 arch/arm/cpu/arm920t/start.o
 .rel.text.usb_hub_reset
                0x0000000000077468       0x10 arch/arm/cpu/arm920t/start.o
 .rel.text.usb_hub_port_connect_change
                0x0000000000077478       0x10 arch/arm/cpu/arm920t/start.o
 .rel.text.usb_hub_configure
                0x0000000000077488       0x40 arch/arm/cpu/arm920t/start.o
 .rel.text.usb_stor_BBB_transport
                0x00000000000774c8       0x10 arch/arm/cpu/arm920t/start.o
 .rel.text.usb_stor_CB_comdat
                0x00000000000774d8        0x8 arch/arm/cpu/arm920t/start.o
 .rel.text.usb_stor_CBI_get_status.isra.4
                0x00000000000774e0        0x8 arch/arm/cpu/arm920t/start.o
 .rel.text.usb_stor_CB_transport
                0x00000000000774e8       0x10 arch/arm/cpu/arm920t/start.o
 .rel.text.usb_request_sense.constprop.10
                0x00000000000774f8        0x8 arch/arm/cpu/arm920t/start.o
 .rel.text.usb_stor_read
                0x0000000000077500       0x10 arch/arm/cpu/arm920t/start.o
 .rel.text.usb_stor_write
                0x0000000000077510       0x10 arch/arm/cpu/arm920t/start.o
 .rel.text.usb_stor_get_dev
                0x0000000000077520       0x10 arch/arm/cpu/arm920t/start.o
 .rel.text.usb_stor_info
                0x0000000000077530       0x20 arch/arm/cpu/arm920t/start.o
 .rel.text.usb_stor_reset
                0x0000000000077550        0x0 arch/arm/cpu/arm920t/start.o
 .rel.text.usb_storage_probe
                0x0000000000077550       0x38 arch/arm/cpu/arm920t/start.o
 .rel.text.usb_stor_get_info
                0x0000000000077588       0x20 arch/arm/cpu/arm920t/start.o
 .rel.text.usb_stor_scan
                0x00000000000775a8       0x40 arch/arm/cpu/arm920t/start.o
 .rel.text.addr2info
                0x00000000000775e8        0x8 arch/arm/cpu/arm920t/start.o
 .rel.text.flash_perror
                0x00000000000775f0       0x58 arch/arm/cpu/arm920t/start.o
 .rel.text.usb_kbd_testc
                0x0000000000077648       0x18 arch/arm/cpu/arm920t/start.o
 .rel.text.usb_kbd_getc
                0x0000000000077660        0x8 arch/arm/cpu/arm920t/start.o
 .rel.text.usb_kbd_translate.part.0
                0x0000000000077668       0x20 arch/arm/cpu/arm920t/start.o
 .rel.text.drv_usb_kbd_init
                0x0000000000077688       0x38 arch/arm/cpu/arm920t/start.o
 .rel.text.env_get_addr
                0x00000000000776c0        0x8 arch/arm/cpu/arm920t/start.o
 .rel.text.env_get_char
                0x00000000000776c8        0x8 arch/arm/cpu/arm920t/start.o
 .rel.text.set_default_env
                0x00000000000776d0       0x40 arch/arm/cpu/arm920t/start.o
 .rel.text.set_default_vars
                0x0000000000077710       0x10 arch/arm/cpu/arm920t/start.o
 .rel.text.env_import
                0x0000000000077720       0x38 arch/arm/cpu/arm920t/start.o
 .rel.text.env_export
                0x0000000000077758       0x28 arch/arm/cpu/arm920t/start.o
 .rel.text.env_relocate
                0x0000000000077780        0x8 arch/arm/cpu/arm920t/start.o
 .rel.text.console_setfile
                0x0000000000077788       0x30 arch/arm/cpu/arm920t/start.o
 .rel.text.putc
                0x00000000000777b8        0x8 arch/arm/cpu/arm920t/start.o
 .rel.text.puts
                0x00000000000777c0        0x8 arch/arm/cpu/arm920t/start.o
 .rel.text.fgetc
                0x00000000000777c8        0x8 arch/arm/cpu/arm920t/start.o
 .rel.text.ftstc
                0x00000000000777d0        0x8 arch/arm/cpu/arm920t/start.o
 .rel.text.fputc
                0x00000000000777d8        0x0 arch/arm/cpu/arm920t/start.o
 .rel.text.fputs
                0x00000000000777d8        0x0 arch/arm/cpu/arm920t/start.o
 .rel.text.ctrlc
                0x00000000000777d8       0x10 arch/arm/cpu/arm920t/start.o
 .rel.text.confirm_yesno
                0x00000000000777e8       0x20 arch/arm/cpu/arm920t/start.o
 .rel.text.disable_ctrlc
                0x0000000000077808        0x0 arch/arm/cpu/arm920t/start.o
 .rel.text.had_ctrlc
                0x0000000000077808        0x8 arch/arm/cpu/arm920t/start.o
 .rel.text.clear_ctrlc
                0x0000000000077810        0x8 arch/arm/cpu/arm920t/start.o
 .rel.text.on_console
                0x0000000000077818       0x20 arch/arm/cpu/arm920t/start.o
 .rel.text.stdio_print_current_devices
                0x0000000000077838       0x40 arch/arm/cpu/arm920t/start.o
 .rel.text.console_init_r
                0x0000000000077878       0x10 arch/arm/cpu/arm920t/start.o
 .rel.text.sbrk
                0x0000000000077888       0x18 arch/arm/cpu/arm920t/start.o
 .rel.text.mem_malloc_init
                0x00000000000778a0       0x18 arch/arm/cpu/arm920t/start.o
 .rel.text.malloc_trim
                0x00000000000778b8       0x18 arch/arm/cpu/arm920t/start.o
 .rel.text.free
                0x00000000000778d0       0x18 arch/arm/cpu/arm920t/start.o
 .rel.text.malloc
                0x00000000000778e8       0x40 arch/arm/cpu/arm920t/start.o
 .rel.text.calloc
                0x0000000000077928        0x8 arch/arm/cpu/arm920t/start.o
 .rel.text.realloc
                0x0000000000077930        0x8 arch/arm/cpu/arm920t/start.o
 .rel.text.mallopt
                0x0000000000077938        0x0 arch/arm/cpu/arm920t/start.o
 .rel.text.on_loadaddr
                0x0000000000077938        0x8 arch/arm/cpu/arm920t/start.o
 .rel.text.getenv_bootm_low
                0x0000000000077940        0x8 arch/arm/cpu/arm920t/start.o
 .rel.text.getenv_bootm_size
                0x0000000000077948       0x10 arch/arm/cpu/arm920t/start.o
 .rel.text.getenv_bootm_mapsize
                0x0000000000077958        0x8 arch/arm/cpu/arm920t/start.o
 .rel.text.genimg_print_size
                0x0000000000077960       0x10 arch/arm/cpu/arm920t/start.o
 .rel.text.genimg_print_time
                0x0000000000077970        0x8 arch/arm/cpu/arm920t/start.o
 .rel.text.genimg_get_short_name
                0x0000000000077978        0x0 arch/arm/cpu/arm920t/start.o
 .rel.text.genimg_get_os_name
                0x0000000000077978       0x10 arch/arm/cpu/arm920t/start.o
 .rel.text.genimg_get_arch_name
                0x0000000000077988       0x10 arch/arm/cpu/arm920t/start.o
 .rel.text.genimg_get_type_name
                0x0000000000077998       0x10 arch/arm/cpu/arm920t/start.o
 .rel.text.genimg_get_type_short_name
                0x00000000000779a8        0x0 arch/arm/cpu/arm920t/start.o
 .rel.text.genimg_get_comp_name
                0x00000000000779a8       0x10 arch/arm/cpu/arm920t/start.o
 .rel.text.image_print_contents
                0x00000000000779b8       0x58 arch/arm/cpu/arm920t/start.o
 .rel.text.genimg_get_comp_short_name
                0x0000000000077a10        0x0 arch/arm/cpu/arm920t/start.o
 .rel.text.genimg_get_os_short_name
                0x0000000000077a10        0x0 arch/arm/cpu/arm920t/start.o
 .rel.text.genimg_get_arch_short_name
                0x0000000000077a10        0x0 arch/arm/cpu/arm920t/start.o
 .rel.text.genimg_get_os_id
                0x0000000000077a10        0x0 arch/arm/cpu/arm920t/start.o
 .rel.text.genimg_get_arch_id
                0x0000000000077a10        0x0 arch/arm/cpu/arm920t/start.o
 .rel.text.genimg_get_type_id
                0x0000000000077a10        0x0 arch/arm/cpu/arm920t/start.o
 .rel.text.genimg_get_comp_id
                0x0000000000077a10        0x0 arch/arm/cpu/arm920t/start.o
 .rel.text.genimg_get_kernel_addr_fit
                0x0000000000077a10        0x8 arch/arm/cpu/arm920t/start.o
 .rel.text.boot_get_ramdisk
                0x0000000000077a18       0x50 arch/arm/cpu/arm920t/start.o
 .rel.text.boot_ramdisk_high
                0x0000000000077a68       0x20 arch/arm/cpu/arm920t/start.o
 .rel.text.stdio_get_list
                0x0000000000077a88        0x8 arch/arm/cpu/arm920t/start.o
 .rel.text.stdio_get_by_name
                0x0000000000077a90        0x8 arch/arm/cpu/arm920t/start.o
 .rel.text.stdio_register_dev
                0x0000000000077a98        0x8 arch/arm/cpu/arm920t/start.o
 .rel.text.stdio_init_tables
                0x0000000000077aa0        0x8 arch/arm/cpu/arm920t/start.o
 .rel.text.stdio_add_devices
                0x0000000000077aa8       0x28 arch/arm/cpu/arm920t/start.o
 .rel.text.cli_simple_parse_line
                0x0000000000077ad0        0x0 arch/arm/cpu/arm920t/start.o
 .rel.text.cli_simple_run_command
                0x0000000000077ad0        0x0 arch/arm/cpu/arm920t/start.o
 .rel.text.cli_simple_loop
                0x0000000000077ad0        0x0 arch/arm/cpu/arm920t/start.o
 .rel.text.do_run
                0x0000000000077ad0        0x8 arch/arm/cpu/arm920t/start.o
 .rel.text.delete_char.part.0
                0x0000000000077ad8       0x10 arch/arm/cpu/arm920t/start.o
 .rel.text.cread_add_char
                0x0000000000077ae8        0x8 arch/arm/cpu/arm920t/start.o
 .rel.text.cli_readline_into_buffer
                0x0000000000077af0       0xa8 arch/arm/cpu/arm920t/start.o
 .rel.text.cli_readline
                0x0000000000077b98        0x8 arch/arm/cpu/arm920t/start.o
 .rel.text.find_cmd
                0x0000000000077ba0       0x10 arch/arm/cpu/arm920t/start.o
 .rel.text.cmd_usage
                0x0000000000077bb0       0x18 arch/arm/cpu/arm920t/start.o
 .rel.text._do_help
                0x0000000000077bc8       0x10 arch/arm/cpu/arm920t/start.o
 .rel.text.cmd_get_data_size
                0x0000000000077bd8        0x8 arch/arm/cpu/arm920t/start.o
 .rel.text.cmd_process
                0x0000000000077be0       0x18 arch/arm/cpu/arm920t/start.o
 .rel.text.cmd_process_error
                0x0000000000077bf8        0x0 arch/arm/cpu/arm920t/start.o
 .rel.text.srec_decode
                0x0000000000077bf8       0x50 arch/arm/cpu/arm920t/start.o
 .rel.text.xyzModem_get_hdr
                0x0000000000077c48       0x28 arch/arm/cpu/arm920t/start.o
 .rel.text.xyzModem_stream_open
                0x0000000000077c70       0x10 arch/arm/cpu/arm920t/start.o
 .rel.text.xyzModem_stream_read
                0x0000000000077c80        0x8 arch/arm/cpu/arm920t/start.o
 .rel.text.xyzModem_stream_close
                0x0000000000077c88       0x20 arch/arm/cpu/arm920t/start.o
 .rel.text.xyzModem_stream_terminate
                0x0000000000077ca8        0x8 arch/arm/cpu/arm920t/start.o
 .rel.text.xyzModem_error
                0x0000000000077cb0       0x10 arch/arm/cpu/arm920t/start.o
 .rel.rodata.boot_os
                0x0000000000077cc0       0x38 arch/arm/cpu/arm920t/start.o
 .rel.rodata.uimage_comp
                0x0000000000077cf8       0x70 arch/arm/cpu/arm920t/start.o
 .rel.rodata.uimage_os
                0x0000000000077d68       0x98 arch/arm/cpu/arm920t/start.o
 .rel.rodata.uimage_arch
                0x0000000000077e00      0x188 arch/arm/cpu/arm920t/start.o
 .rel.rodata.uimage_type
                0x0000000000077f88      0x1a8 arch/arm/cpu/arm920t/start.o
 .rel.rodata.CSWTCH.28
                0x0000000000078130       0x40 arch/arm/cpu/arm920t/start.o
 .rel.data.hash_algo
                0x0000000000078170        0x0 arch/arm/cpu/arm920t/start.o
 .rel.data.reserved_list
                0x0000000000078170       0x58 arch/arm/cpu/arm920t/start.o
 .rel.u_boot_list_2_cmd_2_showvar
                0x00000000000781c8       0x20 arch/arm/cpu/arm920t/start.o
 .rel.data.init_sequence_f
                0x00000000000781e8      0x118 arch/arm/cpu/arm920t/start.o
 .rel.data.init_sequence_r
                0x0000000000078300       0xd0 arch/arm/cpu/arm920t/start.o
 .rel.u_boot_list_2_env_clbk_2_callbacks
                0x00000000000783d0       0x10 arch/arm/cpu/arm920t/start.o
 .rel.u_boot_list_2_env_clbk_2_flags
                0x00000000000783e0       0x10 arch/arm/cpu/arm920t/start.o
 .rel.data.env_name_spec
                0x00000000000783f0        0x8 arch/arm/cpu/arm920t/start.o
 .rel.data.usb_scan_list
                0x00000000000783f8       0x10 arch/arm/cpu/arm920t/start.o
 .rel.data.env_htab
                0x0000000000078408        0x8 arch/arm/cpu/arm920t/start.o
 .rel.u_boot_list_2_env_clbk_2_console
                0x0000000000078410       0x10 arch/arm/cpu/arm920t/start.o
 .rel.data.av_  0x0000000000078420      0x800 arch/arm/cpu/arm920t/start.o
 .rel.u_boot_list_2_env_clbk_2_loadaddr
                0x0000000000078c20       0x10 arch/arm/cpu/arm920t/start.o
 .rel.data.stdio_names
                0x0000000000078c30       0x18 arch/arm/cpu/arm920t/start.o
 .rel.text.get_dev_hwpart
                0x0000000000078c48        0x8 arch/arm/cpu/arm920t/start.o
 .rel.text.dev_print
                0x0000000000078c50      0x110 arch/arm/cpu/arm920t/start.o
 .rel.text.part_init
                0x0000000000078d60       0x10 arch/arm/cpu/arm920t/start.o
 .rel.text.part_print
                0x0000000000078d70       0xb8 arch/arm/cpu/arm920t/start.o
 .rel.text.part_get_info
                0x0000000000078e28       0x10 arch/arm/cpu/arm920t/start.o
 .rel.text.blk_get_device_by_str
                0x0000000000078e38       0x18 arch/arm/cpu/arm920t/start.o
 .rel.text.blk_get_device_part_str
                0x0000000000078e50       0x78 arch/arm/cpu/arm920t/start.o
 .rel.text.test_block_type
                0x0000000000078ec8       0x10 arch/arm/cpu/arm920t/start.o
 .rel.text.print_partition_extended
                0x0000000000078ed8       0x30 arch/arm/cpu/arm920t/start.o
 .rel.text.part_print_dos
                0x0000000000078f08        0x8 arch/arm/cpu/arm920t/start.o
 .rel.text.part_get_info_extended.constprop.1
                0x0000000000078f10       0x80 arch/arm/cpu/arm920t/start.o
 .rel.rodata.block_drvr
                0x0000000000078f90       0x10 arch/arm/cpu/arm920t/start.o
 .rel.u_boot_list_2_part_driver_2_dos
                0x0000000000078fa0       0x20 arch/arm/cpu/arm920t/start.o
 .rel.text.rtc_calc_weekday
                0x0000000000078fc0        0x8 arch/arm/cpu/arm920t/start.o
 .rel.text.rtc_to_tm
                0x0000000000078fc8        0x8 arch/arm/cpu/arm920t/start.o
 .rel.text._input_send_keycodes
                0x0000000000078fd0        0x0 arch/arm/cpu/arm920t/start.o
 .rel.text.input_add_tables
                0x0000000000078fd0        0x0 arch/arm/cpu/arm920t/start.o
 .rel.text.input_stdio_register
                0x0000000000078fd0        0x0 arch/arm/cpu/arm920t/start.o
 .rel.rodata.kbd_to_ansi364
                0x0000000000078fd0        0x0 arch/arm/cpu/arm920t/start.o
 .rel.data.kbd_entry
                0x0000000000078fd0        0x0 arch/arm/cpu/arm920t/start.o
 .rel.text.__mtd_next_device
                0x0000000000078fd0        0x8 arch/arm/cpu/arm920t/start.o
 .rel.text.del_mtd_device
                0x0000000000078fd8       0x10 arch/arm/cpu/arm920t/start.o
 .rel.text.get_mtd_device
                0x0000000000078fe8        0x8 arch/arm/cpu/arm920t/start.o
 .rel.text.__put_mtd_device
                0x0000000000078ff0       0x10 arch/arm/cpu/arm920t/start.o
 .rel.text.add_mtd_device
                0x0000000000079000       0x20 arch/arm/cpu/arm920t/start.o
 .rel.text.mtd_arg_off
                0x0000000000079020       0x10 arch/arm/cpu/arm920t/start.o
 .rel.text.mtd_arg_off_size
                0x0000000000079030       0x28 arch/arm/cpu/arm920t/start.o
 .rel.text.mtd_erase_callback
                0x0000000000079058        0x8 arch/arm/cpu/arm920t/start.o
 .rel.text.del_mtd_partitions
                0x0000000000079060        0x8 arch/arm/cpu/arm920t/start.o
 .rel.text.add_mtd_partitions
                0x0000000000079068       0xf0 arch/arm/cpu/arm920t/start.o
 .rel.text.mtd_is_partition
                0x0000000000079158        0x8 arch/arm/cpu/arm920t/start.o
 .rel.text.flash_isequal
                0x0000000000079160       0x40 arch/arm/cpu/arm920t/start.o
 .rel.text.flash_isset
                0x00000000000791a0       0x40 arch/arm/cpu/arm920t/start.o
 .rel.text.find_sector
                0x00000000000791e0       0x10 arch/arm/cpu/arm920t/start.o
 .rel.text.flash_add_byte.isra.3
                0x00000000000791f0       0x40 arch/arm/cpu/arm920t/start.o
 .rel.text.flash_get_info
                0x0000000000079230        0x8 arch/arm/cpu/arm920t/start.o
 .rel.text.flash_write_cmd
                0x0000000000079238       0x40 arch/arm/cpu/arm920t/start.o
 .rel.text.flash_full_status_check
                0x0000000000079278       0x78 arch/arm/cpu/arm920t/start.o
 .rel.text.flash_write_cfiword
                0x00000000000792f0       0x88 arch/arm/cpu/arm920t/start.o
 .rel.text.flash_erase
                0x0000000000079378       0x30 arch/arm/cpu/arm920t/start.o
 .rel.text.flash_print_info
                0x00000000000793a8       0xa8 arch/arm/cpu/arm920t/start.o
 .rel.text.write_buff
                0x0000000000079450        0x8 arch/arm/cpu/arm920t/start.o
 .rel.text.flash_get_size
                0x0000000000079458       0x30 arch/arm/cpu/arm920t/start.o
 .rel.text.flash_protect_default
                0x0000000000079488        0x8 arch/arm/cpu/arm920t/start.o
 .rel.text.flash_init
                0x0000000000079490       0x18 arch/arm/cpu/arm920t/start.o
 .rel.text.jedec_flash_match
                0x00000000000794a8       0x18 arch/arm/cpu/arm920t/start.o
 .rel.rodata.jedec_table
                0x00000000000794c0       0x38 arch/arm/cpu/arm920t/start.o
 .rel.data.mtd_partitions
                0x00000000000794f8       0x10 arch/arm/cpu/arm920t/start.o
 .rel.text.nand_register
                0x0000000000079508       0x28 arch/arm/cpu/arm920t/start.o
 .rel.text.nand_init
                0x0000000000079530       0x20 arch/arm/cpu/arm920t/start.o
 .rel.text.verify_bbt_descr
                0x0000000000079550       0x20 arch/arm/cpu/arm920t/start.o
 .rel.text.create_bbt
                0x0000000000079570       0x20 arch/arm/cpu/arm920t/start.o
 .rel.text.write_bbt
                0x0000000000079590       0x40 arch/arm/cpu/arm920t/start.o
 .rel.text.nand_default_bbt
                0x00000000000795d0       0x28 arch/arm/cpu/arm920t/start.o
 .rel.text.nand_erase_opts
                0x00000000000795f8       0x48 arch/arm/cpu/arm920t/start.o
 .rel.text.nand_write_skip_bad
                0x0000000000079640       0x28 arch/arm/cpu/arm920t/start.o
 .rel.text.nand_read_skip_bad
                0x0000000000079668       0x28 arch/arm/cpu/arm920t/start.o
 .rel.text.nand_calculate_ecc
                0x0000000000079690        0x8 arch/arm/cpu/arm920t/start.o
 .rel.text.nand_set_defaults
                0x0000000000079698       0x88 arch/arm/cpu/arm920t/start.o
 .rel.text.nand_fill_oob
                0x0000000000079720       0x20 arch/arm/cpu/arm920t/start.o
 .rel.text.nand_wait
                0x0000000000079740       0x10 arch/arm/cpu/arm920t/start.o
 .rel.text.nand_select_chip
                0x0000000000079750       0x20 arch/arm/cpu/arm920t/start.o
 .rel.text.nand_transfer_oob
                0x0000000000079770       0x20 arch/arm/cpu/arm920t/start.o
 .rel.text.nand_scan_ident
                0x0000000000079790       0x90 arch/arm/cpu/arm920t/start.o
 .rel.text.nand_scan_tail
                0x0000000000079820      0x160 arch/arm/cpu/arm920t/start.o
 .rel.text.onfi_async_timing_mode_to_sdr_timings
                0x0000000000079980        0x0 arch/arm/cpu/arm920t/start.o
 .rel.text.board_nand_init
                0x0000000000079980       0x10 arch/arm/cpu/arm920t/start.o
 .rel.data.bbt_mirror_descr
                0x0000000000079990        0x8 arch/arm/cpu/arm920t/start.o
 .rel.data.bbt_main_no_oob_descr
                0x0000000000079998        0x8 arch/arm/cpu/arm920t/start.o
 .rel.data.bbt_mirror_no_oob_descr
                0x00000000000799a0        0x8 arch/arm/cpu/arm920t/start.o
 .rel.data.bbt_main_descr
                0x00000000000799a8        0x8 arch/arm/cpu/arm920t/start.o
 .rel.data.nand_flash_ids
                0x00000000000799b0      0x290 arch/arm/cpu/arm920t/start.o
 .rel.data.nand_manuf_ids
                0x0000000000079c40        0x0 arch/arm/cpu/arm920t/start.o
 .rel.text.add_to_list
                0x0000000000079c40       0x10 arch/arm/cpu/arm920t/start.o
 .rel.text.ubi_attach
                0x0000000000079c50       0xc0 arch/arm/cpu/arm920t/start.o
 .rel.text.ubi_enumerate_volumes
                0x0000000000079d10        0x0 arch/arm/cpu/arm920t/start.o
 .rel.text.ubi_get_device
                0x0000000000079d10        0x8 arch/arm/cpu/arm920t/start.o
 .rel.text.ubi_get_by_major
                0x0000000000079d18        0x0 arch/arm/cpu/arm920t/start.o
 .rel.text.ubi_major2num
                0x0000000000079d18        0x0 arch/arm/cpu/arm920t/start.o
 .rel.text.ubi_attach_mtd_dev
                0x0000000000079d18       0x68 arch/arm/cpu/arm920t/start.o
 .rel.text.ubi_detach_mtd_dev
                0x0000000000079d80       0x18 arch/arm/cpu/arm920t/start.o
 .rel.text.ubi_init
                0x0000000000079d98       0x20 arch/arm/cpu/arm920t/start.o
 .rel.text.ubi_exit
                0x0000000000079db8       0x18 arch/arm/cpu/arm920t/start.o
 .rel.text.ubi_mtd_param_parse
                0x0000000000079dd0       0x18 arch/arm/cpu/arm920t/start.o
 .rel.text.vtbl_check
                0x0000000000079de8        0x8 arch/arm/cpu/arm920t/start.o
 .rel.text.ubi_change_vtbl_record
                0x0000000000079df0       0x28 arch/arm/cpu/arm920t/start.o
 .rel.text.ubi_vtbl_rename_volumes
                0x0000000000079e18        0x0 arch/arm/cpu/arm920t/start.o
 .rel.text.ubi_read_volume_table
                0x0000000000079e18       0x20 arch/arm/cpu/arm920t/start.o
 .rel.text.ubi_create_volume
                0x0000000000079e38        0x8 arch/arm/cpu/arm920t/start.o
 .rel.text.ubi_add_volume
                0x0000000000079e40        0x8 arch/arm/cpu/arm920t/start.o
 .rel.text.ubi_close_volume
                0x0000000000079e48       0x20 arch/arm/cpu/arm920t/start.o
 .rel.text.ubi_eba_read_leb
                0x0000000000079e68        0x8 arch/arm/cpu/arm920t/start.o
 .rel.text.ubi_eba_write_leb
                0x0000000000079e70       0x20 arch/arm/cpu/arm920t/start.o
 .rel.text.ubi_eba_write_leb_st
                0x0000000000079e90        0x8 arch/arm/cpu/arm920t/start.o
 .rel.text.ubi_eba_atomic_leb_change
                0x0000000000079e98        0x8 arch/arm/cpu/arm920t/start.o
 .rel.text.ubi_io_read
                0x0000000000079ea0        0x8 arch/arm/cpu/arm920t/start.o
 .rel.text.ubi_self_check_all_ff
                0x0000000000079ea8        0x8 arch/arm/cpu/arm920t/start.o
 .rel.text.ubi_io_write
                0x0000000000079eb0       0x18 arch/arm/cpu/arm920t/start.o
 .rel.text.do_sync_erase
                0x0000000000079ec8        0x8 arch/arm/cpu/arm920t/start.o
 .rel.text.ubi_io_sync_erase
                0x0000000000079ed0       0x18 arch/arm/cpu/arm920t/start.o
 .rel.text.schedule_erase
                0x0000000000079ee8        0x8 arch/arm/cpu/arm920t/start.o
 .rel.text.ensure_wear_leveling
                0x0000000000079ef0        0x8 arch/arm/cpu/arm920t/start.o
 .rel.text.erase_worker
                0x0000000000079ef8       0x10 arch/arm/cpu/arm920t/start.o
 .rel.text.wear_leveling_worker
                0x0000000000079f08        0x8 arch/arm/cpu/arm920t/start.o
 .rel.text.ubi_wl_scrub_peb
                0x0000000000079f10        0x8 arch/arm/cpu/arm920t/start.o
 .rel.text.ubi_thread
                0x0000000000079f18        0x0 arch/arm/cpu/arm920t/start.o
 .rel.text.ubi_wl_init
                0x0000000000079f18       0x10 arch/arm/cpu/arm920t/start.o
 .rel.text.crc32_le
                0x0000000000079f28        0x8 arch/arm/cpu/arm920t/start.o
 .rel.text.ubi_update_reserved
                0x0000000000079f30        0x8 arch/arm/cpu/arm920t/start.o
 .rel.text.ubi_dump_flash
                0x0000000000079f38        0x8 arch/arm/cpu/arm920t/start.o
 .rel.text.ubi_dump_vol_info
                0x0000000000079f40       0x78 arch/arm/cpu/arm920t/start.o
 .rel.text.cs8900_recv
                0x0000000000079fb8        0x8 arch/arm/cpu/arm920t/start.o
 .rel.text.cs8900_init
                0x0000000000079fc0        0x8 arch/arm/cpu/arm920t/start.o
 .rel.text.cs8900_initialize
                0x0000000000079fc8       0x30 arch/arm/cpu/arm920t/start.o
 .rel.text.get_current
                0x0000000000079ff8       0x10 arch/arm/cpu/arm920t/start.o
 .rel.text.serial_register
                0x000000000007a008        0x8 arch/arm/cpu/arm920t/start.o
 .rel.text.serial_stdio_init
                0x000000000007a010       0x38 arch/arm/cpu/arm920t/start.o
 .rel.text.serial_assign
                0x000000000007a048       0x10 arch/arm/cpu/arm920t/start.o
 .rel.text.serial_reinit_all
                0x000000000007a058        0x0 arch/arm/cpu/arm920t/start.o
 .rel.text.on_baudrate
                0x000000000007a058       0x18 arch/arm/cpu/arm920t/start.o
 .rel.text.default_serial_console
                0x000000000007a070        0x8 arch/arm/cpu/arm920t/start.o
 .rel.text.s3c24xx_serial_initialize
                0x000000000007a078       0x18 arch/arm/cpu/arm920t/start.o
 .rel.u_boot_list_2_env_clbk_2_baudrate
                0x000000000007a090       0x10 arch/arm/cpu/arm920t/start.o
 .rel.data.s3c24xx_serial0_device
                0x000000000007a0a0       0x30 arch/arm/cpu/arm920t/start.o
 .rel.data.s3c24xx_serial2_device
                0x000000000007a0d0       0x30 arch/arm/cpu/arm920t/start.o
 .rel.data.s3c24xx_serial1_device
                0x000000000007a100       0x30 arch/arm/cpu/arm920t/start.o
 .rel.text.spi_set_wordlen
                0x000000000007a130        0x0 arch/arm/cpu/arm920t/start.o
 .rel.text.hc_reset.isra.3
                0x000000000007a130       0x10 arch/arm/cpu/arm920t/start.o
 .rel.text.urb_free_priv.constprop.10
                0x000000000007a140        0x8 arch/arm/cpu/arm920t/start.o
 .rel.text.td_fill.isra.1.constprop.12
                0x000000000007a148       0x10 arch/arm/cpu/arm920t/start.o
 .rel.text.sohci_submit_job
                0x000000000007a158       0x58 arch/arm/cpu/arm920t/start.o
 .rel.text.submit_common_msg
                0x000000000007a1b0       0x60 arch/arm/cpu/arm920t/start.o
 .rel.text.submit_control_msg
                0x000000000007a210      0x110 arch/arm/cpu/arm920t/start.o
 .rel.text.usb_lowlevel_init
                0x000000000007a320       0x50 arch/arm/cpu/arm920t/start.o
 .rel.text.usb_lowlevel_stop
                0x000000000007a370       0x10 arch/arm/cpu/arm920t/start.o
 .rel.text.fs_probe_unsupported
                0x000000000007a380        0x8 arch/arm/cpu/arm920t/start.o
 .rel.text.fs_get_info
                0x000000000007a388        0x8 arch/arm/cpu/arm920t/start.o
 .rel.text.fs_close
                0x000000000007a390        0x8 arch/arm/cpu/arm920t/start.o
 .rel.text.fs_set_blk_dev
                0x000000000007a398       0x20 arch/arm/cpu/arm920t/start.o
 .rel.text.fs_uuid
                0x000000000007a3b8        0x0 arch/arm/cpu/arm920t/start.o
 .rel.text.fs_ls
                0x000000000007a3b8        0x8 arch/arm/cpu/arm920t/start.o
 .rel.text.fs_exists
                0x000000000007a3c0        0x8 arch/arm/cpu/arm920t/start.o
 .rel.text.fs_size
                0x000000000007a3c8        0x8 arch/arm/cpu/arm920t/start.o
 .rel.text.fs_read
                0x000000000007a3d0       0x10 arch/arm/cpu/arm920t/start.o
 .rel.text.fs_write
                0x000000000007a3e0        0x0 arch/arm/cpu/arm920t/start.o
 .rel.text.do_size
                0x000000000007a3e0        0x8 arch/arm/cpu/arm920t/start.o
 .rel.text.do_load
                0x000000000007a3e8       0x50 arch/arm/cpu/arm920t/start.o
 .rel.text.do_ls
                0x000000000007a438        0x8 arch/arm/cpu/arm920t/start.o
 .rel.text.do_save
                0x000000000007a440        0x0 arch/arm/cpu/arm920t/start.o
 .rel.text.do_fs_uuid
                0x000000000007a440        0x0 arch/arm/cpu/arm920t/start.o
 .rel.text.do_fs_type
                0x000000000007a440        0x0 arch/arm/cpu/arm920t/start.o
 .rel.text.get_fs
                0x000000000007a440        0x8 arch/arm/cpu/arm920t/start.o
 .rel.text.ext4fs_free_node
                0x000000000007a448        0x8 arch/arm/cpu/arm920t/start.o
 .rel.text.ext4fs_read_file
                0x000000000007a450        0x8 arch/arm/cpu/arm920t/start.o
 .rel.text.ext4fs_ls
                0x000000000007a458       0x10 arch/arm/cpu/arm920t/start.o
 .rel.text.ext4fs_read
                0x000000000007a468       0x10 arch/arm/cpu/arm920t/start.o
 .rel.text.ext4_read_file
                0x000000000007a478       0x10 arch/arm/cpu/arm920t/start.o
 .rel.text.ext4fs_uuid
                0x000000000007a488        0x8 arch/arm/cpu/arm920t/start.o
 .rel.text.read_allocated_block
                0x000000000007a490       0xb8 arch/arm/cpu/arm920t/start.o
 .rel.text.ext4fs_reinit_global
                0x000000000007a548       0x48 arch/arm/cpu/arm920t/start.o
 .rel.text.ext4fs_close
                0x000000000007a590       0x10 arch/arm/cpu/arm920t/start.o
 .rel.text.ext4fs_iterate_dir
                0x000000000007a5a0       0x30 arch/arm/cpu/arm920t/start.o
 .rel.text.ext4fs_find_file1
                0x000000000007a5d0       0x10 arch/arm/cpu/arm920t/start.o
 .rel.text.ext4fs_find_file
                0x000000000007a5e0        0x8 arch/arm/cpu/arm920t/start.o
 .rel.text.ext4fs_open
                0x000000000007a5e8       0x10 arch/arm/cpu/arm920t/start.o
 .rel.text.ext4fs_mount
                0x000000000007a5f8       0x10 arch/arm/cpu/arm920t/start.o
 .rel.text.ext4fs_set_blk_dev
                0x000000000007a608       0x18 arch/arm/cpu/arm920t/start.o
 .rel.text.ext4fs_devread
                0x000000000007a620       0x40 arch/arm/cpu/arm920t/start.o
 .rel.text.downcase
                0x000000000007a660        0x8 arch/arm/cpu/arm920t/start.o
 .rel.text.disk_read
                0x000000000007a668       0x10 arch/arm/cpu/arm920t/start.o
 .rel.text.get_cluster
                0x000000000007a678        0x8 arch/arm/cpu/arm920t/start.o
 .rel.text.read_bootsectandvi
                0x000000000007a680       0x20 arch/arm/cpu/arm920t/start.o
 .rel.text.get_vfatname
                0x000000000007a6a0       0x10 arch/arm/cpu/arm920t/start.o
 .rel.text.fat_set_blk_dev
                0x000000000007a6b0       0x28 arch/arm/cpu/arm920t/start.o
 .rel.text.fat_register_device
                0x000000000007a6d8        0x0 arch/arm/cpu/arm920t/start.o
 .rel.text.do_fat_read_at
                0x000000000007a6d8       0x60 arch/arm/cpu/arm920t/start.o
 .rel.text.file_fat_detectfs
                0x000000000007a738       0xb0 arch/arm/cpu/arm920t/start.o
 .rel.text.file_fat_read_at
                0x000000000007a7e8        0x8 arch/arm/cpu/arm920t/start.o
 .rel.text.fat_read_file
                0x000000000007a7f0        0x8 arch/arm/cpu/arm920t/start.o
 .rel.text.file_getfsname
                0x000000000007a7f8        0x0 arch/arm/cpu/arm920t/start.o
 .rel.text.file_cd
                0x000000000007a7f8        0x0 arch/arm/cpu/arm920t/start.o
 .rel.text.file_detectfs
                0x000000000007a7f8        0x0 arch/arm/cpu/arm920t/start.o
 .rel.text.file_ls
                0x000000000007a7f8        0x0 arch/arm/cpu/arm920t/start.o
 .rel.text.file_read
                0x000000000007a7f8        0x0 arch/arm/cpu/arm920t/start.o
 .rel.text.compr_init
                0x000000000007a7f8        0x8 arch/arm/cpu/arm920t/start.o
 .rel.text.ubifs_findfile
                0x000000000007a800       0x28 arch/arm/cpu/arm920t/start.o
 .rel.text.ubifs_decompress
                0x000000000007a828        0x8 arch/arm/cpu/arm920t/start.o
 .rel.text.ubifs_compressors_init
                0x000000000007a830       0x18 arch/arm/cpu/arm920t/start.o
 .rel.text.ubifs_ls
                0x000000000007a848       0x80 arch/arm/cpu/arm920t/start.o
 .rel.text.ubifs_exists
                0x000000000007a8c8        0x8 arch/arm/cpu/arm920t/start.o
 .rel.text.ubifs_size
                0x000000000007a8d0       0x18 arch/arm/cpu/arm920t/start.o
 .rel.text.ubifs_read
                0x000000000007a8e8       0x40 arch/arm/cpu/arm920t/start.o
 .rel.text.ubifs_load
                0x000000000007a928       0x18 arch/arm/cpu/arm920t/start.o
 .rel.text.uboot_ubifs_umount
                0x000000000007a940       0x10 arch/arm/cpu/arm920t/start.o
 .rel.text.ubifs_alloc_inode
                0x000000000007a950        0x8 arch/arm/cpu/arm920t/start.o
 .rel.text.iput
                0x000000000007a958        0x8 arch/arm/cpu/arm920t/start.o
 .rel.text.ubifs_iget
                0x000000000007a960        0x8 arch/arm/cpu/arm920t/start.o
 .rel.text.ubifs_umount
                0x000000000007a968        0x8 arch/arm/cpu/arm920t/start.o
 .rel.text.ubifs_mount
                0x000000000007a970       0x48 arch/arm/cpu/arm920t/start.o
 .rel.text.ubifs_init
                0x000000000007a9b8        0x8 arch/arm/cpu/arm920t/start.o
 .rel.text.uboot_ubifs_mount
                0x000000000007a9c0       0x18 arch/arm/cpu/arm920t/start.o
 .rel.text.ubifs_read_superblock
                0x000000000007a9d8       0x18 arch/arm/cpu/arm920t/start.o
 .rel.text.ubifs_unpack_bits
                0x000000000007a9f0       0x40 arch/arm/cpu/arm920t/start.o
 .rel.text.lpt_gc
                0x000000000007aa30        0x0 arch/arm/cpu/arm920t/start.o
 .rel.text.ubifs_scan
                0x000000000007aa30       0x28 arch/arm/cpu/arm920t/start.o
 .rel.text.ubifs_add_to_cat
                0x000000000007aa58       0x38 arch/arm/cpu/arm920t/start.o
 .rel.text.dirty_cow_znode
                0x000000000007aa90        0x8 arch/arm/cpu/arm920t/start.o
 .rel.text.tnc_delete
                0x000000000007aa98        0x8 arch/arm/cpu/arm920t/start.o
 .rel.text.ubifs_tnc_add_nm
                0x000000000007aaa0        0x8 arch/arm/cpu/arm920t/start.o
 .rel.text.ubifs_tnc_close
                0x000000000007aaa8        0x8 arch/arm/cpu/arm920t/start.o
 .rel.text.ubifs_tnc_has_node
                0x000000000007aab0        0x0 arch/arm/cpu/arm920t/start.o
 .rel.text.ubifs_load_znode
                0x000000000007aab0        0x8 arch/arm/cpu/arm920t/start.o
 .rel.text.dbg_snprintf_key
                0x000000000007aab8        0x0 arch/arm/cpu/arm920t/start.o
 .rel.text.dbg_ntype
                0x000000000007aab8        0x0 arch/arm/cpu/arm920t/start.o
 .rel.text.dbg_cstate
                0x000000000007aab8        0x0 arch/arm/cpu/arm920t/start.o
 .rel.text.dbg_jhead
                0x000000000007aab8        0x0 arch/arm/cpu/arm920t/start.o
 .rel.text.ubifs_dump_index
                0x000000000007aab8        0x0 arch/arm/cpu/arm920t/start.o
 .rel.text.crc16
                0x000000000007aab8        0x8 arch/arm/cpu/arm920t/start.o
 .rel.text.ubifs_replay_journal
                0x000000000007aac0       0x30 arch/arm/cpu/arm920t/start.o
 .rel.text.yaffs_alloc_raw_tnode
                0x000000000007aaf0       0x40 arch/arm/cpu/arm920t/start.o
 .rel.text.yaffs_free_raw_tnode
                0x000000000007ab30       0x20 arch/arm/cpu/arm920t/start.o
 .rel.text.yaffs_alloc_raw_obj
                0x000000000007ab50       0x30 arch/arm/cpu/arm920t/start.o
 .rel.text.yaffs_free_raw_obj
                0x000000000007ab80       0x20 arch/arm/cpu/arm920t/start.o
 .rel.text.yaffs_deinit_raw_tnodes_and_objs
                0x000000000007aba0       0x28 arch/arm/cpu/arm920t/start.o
 .rel.text.yaffs_init_raw_tnodes_and_objs
                0x000000000007abc8       0x28 arch/arm/cpu/arm920t/start.o
 .rel.text.yaffs_verify_chunk_bit_id
                0x000000000007abf0       0x30 arch/arm/cpu/arm920t/start.o
 .rel.text.yaffs_clear_chunk_bits
                0x000000000007ac20       0x30 arch/arm/cpu/arm920t/start.o
 .rel.text.yaffs_clear_chunk_bit
                0x000000000007ac50       0x30 arch/arm/cpu/arm920t/start.o
 .rel.text.yaffs_set_chunk_bit
                0x000000000007ac80       0x30 arch/arm/cpu/arm920t/start.o
 .rel.text.yaffs_check_chunk_bit
                0x000000000007acb0       0x30 arch/arm/cpu/arm920t/start.o
 .rel.text.yaffs_still_some_chunks
                0x000000000007ace0       0x30 arch/arm/cpu/arm920t/start.o
 .rel.text.yaffs_count_chunk_bits
                0x000000000007ad10       0x30 arch/arm/cpu/arm920t/start.o
 .rel.text.yaffs_error_str
                0x000000000007ad40       0x18 arch/arm/cpu/arm920t/start.o
 .rel.text.yaffs_bug_fn
                0x000000000007ad58        0x0 arch/arm/cpu/arm920t/start.o
 .rel.text.yaffsfs_SetError
                0x000000000007ad58        0x8 arch/arm/cpu/arm920t/start.o
 .rel.text.yaffsfs_GetLastError
                0x000000000007ad60        0x0 arch/arm/cpu/arm920t/start.o
 .rel.text.yaffsfs_GetError
                0x000000000007ad60        0x0 arch/arm/cpu/arm920t/start.o
 .rel.text.cmd_yaffs_tracemask
                0x000000000007ad60       0x10 arch/arm/cpu/arm920t/start.o
 .rel.text.cmd_yaffs_devconfig
                0x000000000007ad70       0x78 arch/arm/cpu/arm920t/start.o
 .rel.text.cmd_yaffs_dev_ls
                0x000000000007ade8       0x30 arch/arm/cpu/arm920t/start.o
 .rel.text.make_a_file
                0x000000000007ae18        0x8 arch/arm/cpu/arm920t/start.o
 .rel.text.read_a_file
                0x000000000007ae20       0x18 arch/arm/cpu/arm920t/start.o
 .rel.text.cmd_yaffs_mount
                0x000000000007ae38       0x10 arch/arm/cpu/arm920t/start.o
 .rel.text.cmd_yaffs_umount
                0x000000000007ae48       0x10 arch/arm/cpu/arm920t/start.o
 .rel.text.cmd_yaffs_mread_file
                0x000000000007ae58       0x18 arch/arm/cpu/arm920t/start.o
 .rel.text.cmd_yaffs_mwrite_file
                0x000000000007ae70        0x8 arch/arm/cpu/arm920t/start.o
 .rel.text.cmd_yaffs_ls
                0x000000000007ae78       0x48 arch/arm/cpu/arm920t/start.o
 .rel.text.cmd_yaffs_mkdir
                0x000000000007aec0        0x8 arch/arm/cpu/arm920t/start.o
 .rel.text.cmd_yaffs_rmdir
                0x000000000007aec8        0x8 arch/arm/cpu/arm920t/start.o
 .rel.text.cmd_yaffs_rm
                0x000000000007aed0        0x8 arch/arm/cpu/arm920t/start.o
 .rel.text.cmd_yaffs_mv
                0x000000000007aed8        0x8 arch/arm/cpu/arm920t/start.o
 .rel.text.yaffs_checkpt_erase
                0x000000000007aee0       0x40 arch/arm/cpu/arm920t/start.o
 .rel.text.yaffs2_checkpt_flush_buffer
                0x000000000007af20       0x50 arch/arm/cpu/arm920t/start.o
 .rel.text.yaffs2_checkpt_open
                0x000000000007af70       0x10 arch/arm/cpu/arm920t/start.o
 .rel.text.yaffs2_checkpt_rd
                0x000000000007af80       0x28 arch/arm/cpu/arm920t/start.o
 .rel.text.yaffs_checkpt_close
                0x000000000007afa8       0x10 arch/arm/cpu/arm920t/start.o
 .rel.text.yaffs2_checkpt_invalidate_stream
                0x000000000007afb8       0x10 arch/arm/cpu/arm920t/start.o
 .rel.text.yaffs_ecc_calc
                0x000000000007afc8        0x8 arch/arm/cpu/arm920t/start.o
 .rel.text.yaffs_ecc_calc_other
                0x000000000007afd0        0x8 arch/arm/cpu/arm920t/start.o
 .rel.text.yaffs_error_to_str
                0x000000000007afd8        0x0 arch/arm/cpu/arm920t/start.o
 .rel.text.yaffsfs_HandleToFileDes
                0x000000000007afd8       0x10 arch/arm/cpu/arm920t/start.o
 .rel.text.yaffsfs_HandleToObject
                0x000000000007afe8        0x8 arch/arm/cpu/arm920t/start.o
 .rel.text.yaffsfs_GetHandle
                0x000000000007aff0        0x8 arch/arm/cpu/arm920t/start.o
 .rel.text.yaffsfs_RemoveObjectCallback
                0x000000000007aff8        0x8 arch/arm/cpu/arm920t/start.o
 .rel.text.yaffsfs_NewHandle
                0x000000000007b000        0x8 arch/arm/cpu/arm920t/start.o
 .rel.text.yaffsfs_FindInodeIdForObject
                0x000000000007b008        0x8 arch/arm/cpu/arm920t/start.o
 .rel.text.yaffsfs_PutInode.part.1
                0x000000000007b010        0x8 arch/arm/cpu/arm920t/start.o
 .rel.text.yaffsfs_PutHandle
                0x000000000007b018       0x10 arch/arm/cpu/arm920t/start.o
 .rel.text.yaffs_set_trace
                0x000000000007b028        0x0 arch/arm/cpu/arm920t/start.o
 .rel.text.yaffs_get_trace
                0x000000000007b028        0x0 arch/arm/cpu/arm920t/start.o
 .rel.text.yaffsfs_IsPathDivider
                0x000000000007b028        0x8 arch/arm/cpu/arm920t/start.o
 .rel.text.yaffsfs_FindDevice
                0x000000000007b030        0x8 arch/arm/cpu/arm920t/start.o
 .rel.text.yaffsfs_DoFindDirectory
                0x000000000007b038       0x10 arch/arm/cpu/arm920t/start.o
 .rel.text.yaffs_dup
                0x000000000007b048        0x0 arch/arm/cpu/arm920t/start.o
 .rel.text.yaffs_open_sharing
                0x000000000007b048       0x10 arch/arm/cpu/arm920t/start.o
 .rel.text.yaffs_close
                0x000000000007b058        0x8 arch/arm/cpu/arm920t/start.o
 .rel.text.yaffsfs_DoUnlink
                0x000000000007b060        0x8 arch/arm/cpu/arm920t/start.o
 .rel.text.yaffs_rename
                0x000000000007b068        0x8 arch/arm/cpu/arm920t/start.o
 .rel.text.yaffs_mount_common
                0x000000000007b070       0x30 arch/arm/cpu/arm920t/start.o
 .rel.text.yaffs_unmount2
                0x000000000007b0a0        0x8 arch/arm/cpu/arm920t/start.o
 .rel.text.yaffs_add_device
                0x000000000007b0a8       0x10 arch/arm/cpu/arm920t/start.o
 .rel.text.yaffs_dev_rewind
                0x000000000007b0b8       0x10 arch/arm/cpu/arm920t/start.o
 .rel.text.yaffs_next_dev
                0x000000000007b0c8       0x10 arch/arm/cpu/arm920t/start.o
 .rel.text.yaffs_opendir
                0x000000000007b0d8       0x10 arch/arm/cpu/arm920t/start.o
 .rel.text.yaffs_readdir
                0x000000000007b0e8        0x8 arch/arm/cpu/arm920t/start.o
 .rel.text.yaffs_n_handles
                0x000000000007b0f0        0x0 arch/arm/cpu/arm920t/start.o
 .rel.text.yaffs_free_obj
                0x000000000007b0f0       0x30 arch/arm/cpu/arm920t/start.o
 .rel.text.yaffs_get_temp_buffer
                0x000000000007b120       0x10 arch/arm/cpu/arm920t/start.o
 .rel.text.yaffs_release_temp_buffer
                0x000000000007b130       0x10 arch/arm/cpu/arm920t/start.o
 .rel.text.yaffs_is_managed_tmp_buffer
                0x000000000007b140        0x0 arch/arm/cpu/arm920t/start.o
 .rel.text.yaffs_handle_chunk_error
                0x000000000007b140       0x10 arch/arm/cpu/arm920t/start.o
 .rel.text.yaffs_check_chunk_erased
                0x000000000007b150       0x10 arch/arm/cpu/arm920t/start.o
 .rel.text.yaffs_skip_rest_of_block
                0x000000000007b160       0x30 arch/arm/cpu/arm920t/start.o
 .rel.text.yaffs_soft_del_worker
                0x000000000007b190       0x38 arch/arm/cpu/arm920t/start.o
 .rel.text.yaffs_rd_data_obj
                0x000000000007b1c8       0x10 arch/arm/cpu/arm920t/start.o
 .rel.text.yaffs_add_find_tnode_0
                0x000000000007b1d8       0x10 arch/arm/cpu/arm920t/start.o
 .rel.text.yaffs_add_obj_to_dir
                0x000000000007b1e8       0x38 arch/arm/cpu/arm920t/start.o
 .rel.text.yaffs_clone_str
                0x000000000007b220        0x8 arch/arm/cpu/arm920t/start.o
 .rel.text.yaffs_block_became_dirty
                0x000000000007b228       0x78 arch/arm/cpu/arm920t/start.o
 .rel.text.yaffs_chunk_del
                0x000000000007b2a0       0x40 arch/arm/cpu/arm920t/start.o
 .rel.text.yaffs_put_chunk_in_file
                0x000000000007b2e0       0x38 arch/arm/cpu/arm920t/start.o
 .rel.text.yaffs_write_new_chunk
                0x000000000007b318       0x78 arch/arm/cpu/arm920t/start.o
 .rel.text.yaffs_get_obj_name
                0x000000000007b390       0x10 arch/arm/cpu/arm920t/start.o
 .rel.text.yaffs_find_by_name
                0x000000000007b3a0       0x40 arch/arm/cpu/arm920t/start.o
 .rel.text.yaffs_change_obj_name
                0x000000000007b3e0       0x30 arch/arm/cpu/arm920t/start.o
 .rel.text.yaffs_generic_obj_del
                0x000000000007b410        0x8 arch/arm/cpu/arm920t/start.o
 .rel.text.yaffs_check_gc
                0x000000000007b418       0x98 arch/arm/cpu/arm920t/start.o
 .rel.text.yaffs_update_oh
                0x000000000007b4b0       0x40 arch/arm/cpu/arm920t/start.o
 .rel.text.yaffs_update_dirty_dirs
                0x000000000007b4f0        0x0 arch/arm/cpu/arm920t/start.o
 .rel.text.yaffs_update_parent
                0x000000000007b4f0       0x10 arch/arm/cpu/arm920t/start.o
 .rel.text.yaffs_wr_data_obj
                0x000000000007b500       0x30 arch/arm/cpu/arm920t/start.o
 .rel.text.yaffs_flush_file_cache
                0x000000000007b530       0x10 arch/arm/cpu/arm920t/start.o
 .rel.text.yaffs_do_file_wr
                0x000000000007b540       0x30 arch/arm/cpu/arm920t/start.o
 .rel.text.yaffs_resize_file_down
                0x000000000007b570       0x10 arch/arm/cpu/arm920t/start.o
 .rel.text.yaffs_bg_gc
                0x000000000007b580        0x0 arch/arm/cpu/arm920t/start.o
 .rel.text.yaffs_soft_del_file
                0x000000000007b580       0x10 arch/arm/cpu/arm920t/start.o
 .rel.text.yaffs_del_file
                0x000000000007b590       0x20 arch/arm/cpu/arm920t/start.o
 .rel.text.yaffs_del_obj
                0x000000000007b5b0       0x40 arch/arm/cpu/arm920t/start.o
 .rel.text.yaffs_unlink_obj
                0x000000000007b5f0       0x30 arch/arm/cpu/arm920t/start.o
 .rel.text.yaffs_rename_obj
                0x000000000007b620       0x20 arch/arm/cpu/arm920t/start.o
 .rel.text.yaffs_del_dir_contents
                0x000000000007b640       0x30 arch/arm/cpu/arm920t/start.o
 .rel.text.yaffs_get_symlink_alias
                0x000000000007b670        0x0 arch/arm/cpu/arm920t/start.o
 .rel.text.yaffs_guts_initialise
                0x000000000007b670       0x70 arch/arm/cpu/arm920t/start.o
 .rel.text.yaffs_rd_chunk_tags_nand
                0x000000000007b6e0       0x30 arch/arm/cpu/arm920t/start.o
 .rel.text.yaffs_wr_chunk_tags_nand
                0x000000000007b710       0x38 arch/arm/cpu/arm920t/start.o
 .rel.text.yaffs_unpack_tags1
                0x000000000007b748        0x0 arch/arm/cpu/arm920t/start.o
 .rel.text.yaffs_dump_packed_tags2_tags_only
                0x000000000007b748       0x10 arch/arm/cpu/arm920t/start.o
 .rel.text.yaffs_dump_tags2
                0x000000000007b758       0x10 arch/arm/cpu/arm920t/start.o
 .rel.text.yaffs_unpack_tags2
                0x000000000007b768        0x8 arch/arm/cpu/arm920t/start.o
 .rel.text.yaffs_summary_read
                0x000000000007b770       0x30 arch/arm/cpu/arm920t/start.o
 .rel.text.yaffs_summary_add
                0x000000000007b7a0       0x30 arch/arm/cpu/arm920t/start.o
 .rel.text.yaffs_summary_gc
                0x000000000007b7d0       0x30 arch/arm/cpu/arm920t/start.o
 .rel.text.yaffs_wr_nand
                0x000000000007b800       0x10 arch/arm/cpu/arm920t/start.o
 .rel.text.yaffs_handle_rd_data_error
                0x000000000007b810       0x38 arch/arm/cpu/arm920t/start.o
 .rel.text.yaffs_rd_chunk_nand.constprop.2
                0x000000000007b848       0x48 arch/arm/cpu/arm920t/start.o
 .rel.text.yaffs_tags_compat_rd
                0x000000000007b890       0x10 arch/arm/cpu/arm920t/start.o
 .rel.text.yaffs_tags_compat_query_block
                0x000000000007b8a0       0x10 arch/arm/cpu/arm920t/start.o
 .rel.text.yaffs_skip_verification
                0x000000000007b8b0        0x8 arch/arm/cpu/arm920t/start.o
 .rel.text.yaffs_verify_blk
                0x000000000007b8b8       0x30 arch/arm/cpu/arm920t/start.o
 .rel.text.yaffs_verify_collected_blk
                0x000000000007b8e8       0x10 arch/arm/cpu/arm920t/start.o
 .rel.text.yaffs_verify_blocks
                0x000000000007b8f8       0x70 arch/arm/cpu/arm920t/start.o
 .rel.text.yaffs_verify_oh
                0x000000000007b968       0x40 arch/arm/cpu/arm920t/start.o
 .rel.text.yaffs_verify_file
                0x000000000007b9a8       0x10 arch/arm/cpu/arm920t/start.o
 .rel.text.yaffs_verify_dir
                0x000000000007b9b8       0x38 arch/arm/cpu/arm920t/start.o
 .rel.text.yaffs_verify_obj
                0x000000000007b9f0       0x68 arch/arm/cpu/arm920t/start.o
 .rel.text.yaffs_verify_objects
                0x000000000007ba58        0x8 arch/arm/cpu/arm920t/start.o
 .rel.text.yaffs_verify_obj_in_dir
                0x000000000007ba60       0x48 arch/arm/cpu/arm920t/start.o
 .rel.text.yaffs_verify_free_chunks
                0x000000000007baa8       0x18 arch/arm/cpu/arm920t/start.o
 .rel.text.yaffs1_scan
                0x000000000007bac0       0x70 arch/arm/cpu/arm920t/start.o
 .rel.text.yaffs2_find_refresh_block
                0x000000000007bb30       0x10 arch/arm/cpu/arm920t/start.o
 .rel.text.yaffs_checkpoint_save
                0x000000000007bb40       0x40 arch/arm/cpu/arm920t/start.o
 .rel.text.yaffs2_checkpt_restore
                0x000000000007bb80       0x68 arch/arm/cpu/arm920t/start.o
 .rel.text.yaffs2_scan_backwards
                0x000000000007bbe8       0xc0 arch/arm/cpu/arm920t/start.o
 .rel.text.nandmtd2_write_chunk_tags
                0x000000000007bca8       0x30 arch/arm/cpu/arm920t/start.o
 .rel.text.nandmtd2_read_chunk_tags
                0x000000000007bcd8       0x10 arch/arm/cpu/arm920t/start.o
 .rel.text.nandmtd2_MarkNANDBlockBad
                0x000000000007bce8       0x10 arch/arm/cpu/arm920t/start.o
 .rel.text.nandmtd2_QueryNANDBlock
                0x000000000007bcf8       0x20 arch/arm/cpu/arm920t/start.o
 .rel.rodata.filesystems
                0x000000000007bd18        0x0 arch/arm/cpu/arm920t/start.o
 .rel.rodata.ubifs_super_operations
                0x000000000007bd18       0x10 arch/arm/cpu/arm920t/start.o
 .rel.rodata.CSWTCH.37
                0x000000000007bd28        0x0 arch/arm/cpu/arm920t/start.o
 .rel.rodata.CSWTCH.44
                0x000000000007bd28        0x0 arch/arm/cpu/arm920t/start.o
 .rel.rodata.CSWTCH.46
                0x000000000007bd28        0x0 arch/arm/cpu/arm920t/start.o
 .rel.rodata.CSWTCH.42
                0x000000000007bd28        0x0 arch/arm/cpu/arm920t/start.o
 .rel.rodata.CSWTCH.20
                0x000000000007bd28      0x148 arch/arm/cpu/arm920t/start.o
 .rel.rodata.error_list
                0x000000000007be70        0x0 arch/arm/cpu/arm920t/start.o
 .rel.rodata.block_state_name
                0x000000000007be70       0x50 arch/arm/cpu/arm920t/start.o
 .rel.data.fstypes
                0x000000000007bec0      0x120 arch/arm/cpu/arm920t/start.o
 .rel.data.lzo_compr
                0x000000000007bfe0       0x18 arch/arm/cpu/arm920t/start.o
 .rel.data.none_compr
                0x000000000007bff8       0x10 arch/arm/cpu/arm920t/start.o
 .rel.data.zlib_compr
                0x000000000007c008       0x18 arch/arm/cpu/arm920t/start.o
 .rel.data.ubifs_fs_type
                0x000000000007c020       0x18 arch/arm/cpu/arm920t/start.o
 .rel.data.yaffsfs_deviceList
                0x000000000007c038       0x10 arch/arm/cpu/arm920t/start.o
 .rel.text.lzmaBuffToBuffDecompress
                0x000000000007c048       0x10 arch/arm/cpu/arm920t/start.o
 .rel.text.lzop_decompress
                0x000000000007c058        0x8 arch/arm/cpu/arm920t/start.o
 .rel.text.inflate_fast
                0x000000000007c060       0x18 arch/arm/cpu/arm920t/start.o
 .rel.text.inflate_table
                0x000000000007c078       0x20 arch/arm/cpu/arm920t/start.o
 .rel.text.inflateInit2_
                0x000000000007c098       0x10 arch/arm/cpu/arm920t/start.o
 .rel.text.inflate
                0x000000000007c0a8      0x188 arch/arm/cpu/arm920t/start.o
 .rel.text.BZ2_bzDecompressInit
                0x000000000007c230       0x10 arch/arm/cpu/arm920t/start.o
 .rel.text.BZ2_bzDecompress
                0x000000000007c240       0x10 arch/arm/cpu/arm920t/start.o
 .rel.text.BZ2_bzlibVersion
                0x000000000007c250        0x0 arch/arm/cpu/arm920t/start.o
 .rel.text.bz_internal_error
                0x000000000007c250        0x8 arch/arm/cpu/arm920t/start.o
 .rel.text.BZ2_decompress
                0x000000000007c258      0x150 arch/arm/cpu/arm920t/start.o
 .rel.text.crc7
                0x000000000007c3a8        0x0 arch/arm/cpu/arm920t/start.o
 .rel.text.crc16_ccitt
                0x000000000007c3a8        0x8 arch/arm/cpu/arm920t/start.o
 .rel.text.zunzip
                0x000000000007c3b0       0x28 arch/arm/cpu/arm920t/start.o
 .rel.text.gunzip
                0x000000000007c3d8       0x10 arch/arm/cpu/arm920t/start.o
 .rel.text.initcall_run_list
                0x000000000007c3e8        0x8 arch/arm/cpu/arm920t/start.o
 .rel.text.lmb_alloc_base
                0x000000000007c3f0        0x8 arch/arm/cpu/arm920t/start.o
 .rel.text.strmhz
                0x000000000007c3f8       0x10 arch/arm/cpu/arm920t/start.o
 .rel.text.list_sort
                0x000000000007c408        0x8 arch/arm/cpu/arm920t/start.o
 .rel.text.match_string
                0x000000000007c410        0x8 arch/arm/cpu/arm920t/start.o
 .rel.text.match_entry
                0x000000000007c418        0x8 arch/arm/cpu/arm920t/start.o
 .rel.text.hcreate_r
                0x000000000007c420        0x8 arch/arm/cpu/arm920t/start.o
 .rel.text.hdestroy_r
                0x000000000007c428        0x8 arch/arm/cpu/arm920t/start.o
 .rel.text.hmatch_r
                0x000000000007c430        0x0 arch/arm/cpu/arm920t/start.o
 .rel.text.hsearch_r
                0x000000000007c430        0x8 arch/arm/cpu/arm920t/start.o
 .rel.text.hdelete_r
                0x000000000007c438        0x8 arch/arm/cpu/arm920t/start.o
 .rel.text.hexport_r
                0x000000000007c440       0x18 arch/arm/cpu/arm920t/start.o
 .rel.text.himport_r
                0x000000000007c458       0x20 arch/arm/cpu/arm920t/start.o
 .rel.text.display_options
                0x000000000007c478       0x10 arch/arm/cpu/arm920t/start.o
 .rel.text.print_freq
                0x000000000007c488        0x0 arch/arm/cpu/arm920t/start.o
 .rel.text.print_size
                0x000000000007c488       0x28 arch/arm/cpu/arm920t/start.o
 .rel.text.print_buffer
                0x000000000007c4b0       0x28 arch/arm/cpu/arm920t/start.o
 .rel.text.crc32_no_comp
                0x000000000007c4d8        0x8 arch/arm/cpu/arm920t/start.o
 .rel.text.hang
                0x000000000007c4e0        0x8 arch/arm/cpu/arm920t/start.o
 .rel.text.skip_spaces
                0x000000000007c4e8        0x8 arch/arm/cpu/arm920t/start.o
 .rel.text.strim
                0x000000000007c4f0        0x8 arch/arm/cpu/arm920t/start.o
 .rel.text.emit
                0x000000000007c4f8        0x8 arch/arm/cpu/arm920t/start.o
 .rel.text.store_char_in_data
                0x000000000007c500        0x8 arch/arm/cpu/arm920t/start.o
 .rel.text.match
                0x000000000007c508       0x98 arch/arm/cpu/arm920t/start.o
 .rel.text.quantifier
                0x000000000007c5a0        0x8 arch/arm/cpu/arm920t/start.o
 .rel.text.fixup_branch
                0x000000000007c5a8        0x8 arch/arm/cpu/arm920t/start.o
 .rel.text.compile
                0x000000000007c5b0       0x28 arch/arm/cpu/arm920t/start.o
 .rel.text.slre_compile
                0x000000000007c5d8        0x8 arch/arm/cpu/arm920t/start.o
 .rel.text.strncasecmp
                0x000000000007c5e0        0x0 arch/arm/cpu/arm920t/start.o
 .rel.text.strtok
                0x000000000007c5e0        0x0 arch/arm/cpu/arm920t/start.o
 .rel.text.string
                0x000000000007c5e0        0x8 arch/arm/cpu/arm920t/start.o
 .rel.text.number
                0x000000000007c5e8        0x8 arch/arm/cpu/arm920t/start.o
 .rel.text.vsnprintf_internal
                0x000000000007c5f0       0x10 arch/arm/cpu/arm920t/start.o
 .rel.text.__assert_fail
                0x000000000007c600        0x0 arch/arm/cpu/arm920t/start.o
 .rel.text.simple_itoa
                0x000000000007c600        0x8 arch/arm/cpu/arm920t/start.o
 .rel.text.print_grouped_ull
                0x000000000007c608        0x0 arch/arm/cpu/arm920t/start.o
 .rel.text.simple_strtoul
                0x000000000007c608        0x8 arch/arm/cpu/arm920t/start.o
 .rel.text.simple_strtoull
                0x000000000007c610        0x8 arch/arm/cpu/arm920t/start.o
 .rel.text.trailing_strtoln
                0x000000000007c618        0x0 arch/arm/cpu/arm920t/start.o
 .rel.rodata.z_errmsg
                0x000000000007c618        0x0 arch/arm/cpu/arm920t/start.o
 .rel.data.current
                0x000000000007c618        0x0 arch/arm/cpu/arm920t/start.o
 .rel.text.arp_init
                0x000000000007c618       0x30 arch/arm/cpu/arm920t/start.o
 .rel.text.arp_raw_request
                0x000000000007c648       0x18 arch/arm/cpu/arm920t/start.o
 .rel.text.arp_request
                0x000000000007c660       0x38 arch/arm/cpu/arm920t/start.o
 .rel.text.arp_timeout_check
                0x000000000007c698       0x28 arch/arm/cpu/arm920t/start.o
 .rel.text.arp_receive
                0x000000000007c6c0       0x40 arch/arm/cpu/arm920t/start.o
 .rel.text.dhcp_process_options
                0x000000000007c700       0x68 arch/arm/cpu/arm920t/start.o
 .rel.text.dhcp_packet_process_options
                0x000000000007c768        0x8 arch/arm/cpu/arm920t/start.o
 .rel.text.dhcp_handler
                0x000000000007c770       0x90 arch/arm/cpu/arm920t/start.o
 .rel.text.bootp_reset
                0x000000000007c800       0x20 arch/arm/cpu/arm920t/start.o
 .rel.text.bootp_request
                0x000000000007c820       0x78 arch/arm/cpu/arm920t/start.o
 .rel.text.bootp_timeout_handler
                0x000000000007c898       0x28 arch/arm/cpu/arm920t/start.o
 .rel.text.on_ethaddr
                0x000000000007c8c0        0x8 arch/arm/cpu/arm920t/start.o
 .rel.text.eth_set_current_to_next
                0x000000000007c8c8        0x8 arch/arm/cpu/arm920t/start.o
 .rel.text.eth_set_dev
                0x000000000007c8d0        0x8 arch/arm/cpu/arm920t/start.o
 .rel.text.eth_get_dev_by_name
                0x000000000007c8d8       0x28 arch/arm/cpu/arm920t/start.o
 .rel.text.eth_get_dev_by_index
                0x000000000007c900        0x8 arch/arm/cpu/arm920t/start.o
 .rel.text.eth_get_dev_index
                0x000000000007c908        0x8 arch/arm/cpu/arm920t/start.o
 .rel.text.eth_write_hwaddr
                0x000000000007c910       0x30 arch/arm/cpu/arm920t/start.o
 .rel.text.eth_register
                0x000000000007c940       0x18 arch/arm/cpu/arm920t/start.o
 .rel.text.eth_unregister
                0x000000000007c958        0x0 arch/arm/cpu/arm920t/start.o
 .rel.text.eth_initialize
                0x000000000007c958       0x78 arch/arm/cpu/arm920t/start.o
 .rel.text.eth_init
                0x000000000007c9d0       0x10 arch/arm/cpu/arm920t/start.o
 .rel.text.eth_halt
                0x000000000007c9e0        0x8 arch/arm/cpu/arm920t/start.o
 .rel.text.eth_send
                0x000000000007c9e8        0x8 arch/arm/cpu/arm920t/start.o
 .rel.text.eth_rx
                0x000000000007c9f0        0x8 arch/arm/cpu/arm920t/start.o
 .rel.text.eth_setenv_enetaddr
                0x000000000007c9f8        0x8 arch/arm/cpu/arm920t/start.o
 .rel.text.eth_getenv_enetaddr_by_index
                0x000000000007ca00       0x10 arch/arm/cpu/arm920t/start.o
 .rel.text.eth_setenv_enetaddr_by_index
                0x000000000007ca10       0x10 arch/arm/cpu/arm920t/start.o
 .rel.text.eth_mac_skip
                0x000000000007ca20       0x10 arch/arm/cpu/arm920t/start.o
 .rel.text.eth_get_name
                0x000000000007ca30       0x10 arch/arm/cpu/arm920t/start.o
 .rel.text.eth_current_changed
                0x000000000007ca40       0x20 arch/arm/cpu/arm920t/start.o
 .rel.text.eth_try_another
                0x000000000007ca60       0x28 arch/arm/cpu/arm920t/start.o
 .rel.text.eth_set_current
                0x000000000007ca88       0x20 arch/arm/cpu/arm920t/start.o
 .rel.text.net_clear_handlers
                0x000000000007caa8       0x20 arch/arm/cpu/arm920t/start.o
 .rel.text.start_again_timeout_handler
                0x000000000007cac8        0x8 arch/arm/cpu/arm920t/start.o
 .rel.text.on_ipaddr
                0x000000000007cad0        0x8 arch/arm/cpu/arm920t/start.o
 .rel.text.on_gatewayip
                0x000000000007cad8        0x8 arch/arm/cpu/arm920t/start.o
 .rel.text.on_netmask
                0x000000000007cae0        0x8 arch/arm/cpu/arm920t/start.o
 .rel.text.on_serverip
                0x000000000007cae8        0x8 arch/arm/cpu/arm920t/start.o
 .rel.text.net_init_loop
                0x000000000007caf0       0x10 arch/arm/cpu/arm920t/start.o
 .rel.text.net_auto_load
                0x000000000007cb00       0x18 arch/arm/cpu/arm920t/start.o
 .rel.text.net_init
                0x000000000007cb18       0x20 arch/arm/cpu/arm920t/start.o
 .rel.text.net_start_again
                0x000000000007cb38       0x78 arch/arm/cpu/arm920t/start.o
 .rel.text.net_loop
                0x000000000007cbb0      0x188 arch/arm/cpu/arm920t/start.o
 .rel.text.net_get_udp_handler
                0x000000000007cd38        0x0 arch/arm/cpu/arm920t/start.o
 .rel.text.net_set_udp_handler
                0x000000000007cd38       0x10 arch/arm/cpu/arm920t/start.o
 .rel.text.net_get_arp_handler
                0x000000000007cd48        0x8 arch/arm/cpu/arm920t/start.o
 .rel.text.net_set_arp_handler
                0x000000000007cd50        0x0 arch/arm/cpu/arm920t/start.o
 .rel.text.net_set_timeout_handler
                0x000000000007cd50       0x18 arch/arm/cpu/arm920t/start.o
 .rel.text.net_process_received_packet
                0x000000000007cd68       0x38 arch/arm/cpu/arm920t/start.o
 .rel.text.net_eth_hdr_size
                0x000000000007cda0        0x8 arch/arm/cpu/arm920t/start.o
 .rel.text.net_set_ether
                0x000000000007cda8       0x10 arch/arm/cpu/arm920t/start.o
 .rel.text.net_update_ether
                0x000000000007cdb8        0x8 arch/arm/cpu/arm920t/start.o
 .rel.text.net_set_ip_header
                0x000000000007cdc0        0x8 arch/arm/cpu/arm920t/start.o
 .rel.text.net_set_udp_header
                0x000000000007cdc8        0x8 arch/arm/cpu/arm920t/start.o
 .rel.text.net_send_udp_packet
                0x000000000007cdd0       0x40 arch/arm/cpu/arm920t/start.o
 .rel.text.on_bootfile
                0x000000000007ce10        0x8 arch/arm/cpu/arm920t/start.o
 .rel.text.ip_to_string
                0x000000000007ce18        0x8 arch/arm/cpu/arm920t/start.o
 .rel.text.vlan_to_string
                0x000000000007ce20        0x0 arch/arm/cpu/arm920t/start.o
 .rel.text.on_nvlan
                0x000000000007ce20        0x8 arch/arm/cpu/arm920t/start.o
 .rel.text.on_vlan
                0x000000000007ce28        0x8 arch/arm/cpu/arm920t/start.o
 .rel.text.rpc_lookup_reply
                0x000000000007ce30       0x18 arch/arm/cpu/arm920t/start.o
 .rel.text.nfs_mount_reply
                0x000000000007ce48       0x18 arch/arm/cpu/arm920t/start.o
 .rel.text.nfs_umountall_reply
                0x000000000007ce60       0x18 arch/arm/cpu/arm920t/start.o
 .rel.text.nfs_lookup_reply
                0x000000000007ce78       0x10 arch/arm/cpu/arm920t/start.o
 .rel.text.nfs_readlink_reply
                0x000000000007ce88       0x18 arch/arm/cpu/arm920t/start.o
 .rel.text.rpc_add_credentials
                0x000000000007cea0        0x8 arch/arm/cpu/arm920t/start.o
 .rel.text.rpc_req
                0x000000000007cea8       0x38 arch/arm/cpu/arm920t/start.o
 .rel.text.nfs_umountall_req
                0x000000000007cee0       0x10 arch/arm/cpu/arm920t/start.o
 .rel.text.nfs_lookup_req
                0x000000000007cef0        0x8 arch/arm/cpu/arm920t/start.o
 .rel.text.nfs_read_req
                0x000000000007cef8        0x8 arch/arm/cpu/arm920t/start.o
 .rel.text.nfs_readlink_req
                0x000000000007cf00        0x8 arch/arm/cpu/arm920t/start.o
 .rel.text.nfs_read_reply.isra.0
                0x000000000007cf08       0x28 arch/arm/cpu/arm920t/start.o
 .rel.text.nfs_send
                0x000000000007cf30       0x60 arch/arm/cpu/arm920t/start.o
 .rel.text.nfs_handler
                0x000000000007cf90       0xa8 arch/arm/cpu/arm920t/start.o
 .rel.text.nfs_timeout_handler
                0x000000000007d038       0x20 arch/arm/cpu/arm920t/start.o
 .rel.text.nfs_start
                0x000000000007d058       0xe0 arch/arm/cpu/arm920t/start.o
 .rel.text.ping_timeout_handler
                0x000000000007d138        0x8 arch/arm/cpu/arm920t/start.o
 .rel.text.ping_start
                0x000000000007d140       0x58 arch/arm/cpu/arm920t/start.o
 .rel.text.ping_receive
                0x000000000007d198       0x18 arch/arm/cpu/arm920t/start.o
 .rel.text.tftp_send
                0x000000000007d1b0       0xb8 arch/arm/cpu/arm920t/start.o
 .rel.text.tftp_handler
                0x000000000007d268       0xd0 arch/arm/cpu/arm920t/start.o
 .rel.text.tftp_timeout_handler
                0x000000000007d338       0x40 arch/arm/cpu/arm920t/start.o
 .rel.text.tftp_start
                0x000000000007d378      0x140 arch/arm/cpu/arm920t/start.o
 .rel.u_boot_list_2_env_clbk_2_ethaddr
                0x000000000007d4b8       0x10 arch/arm/cpu/arm920t/start.o
 .rel.u_boot_list_2_env_clbk_2_ipaddr
                0x000000000007d4c8       0x10 arch/arm/cpu/arm920t/start.o
 .rel.u_boot_list_2_env_clbk_2_vlan
                0x000000000007d4d8       0x10 arch/arm/cpu/arm920t/start.o
 .rel.u_boot_list_2_env_clbk_2_serverip
                0x000000000007d4e8       0x10 arch/arm/cpu/arm920t/start.o
 .rel.u_boot_list_2_env_clbk_2_bootfile
                0x000000000007d4f8       0x10 arch/arm/cpu/arm920t/start.o
 .rel.u_boot_list_2_env_clbk_2_netmask
                0x000000000007d508       0x10 arch/arm/cpu/arm920t/start.o
 .rel.u_boot_list_2_env_clbk_2_gatewayip
                0x000000000007d518       0x10 arch/arm/cpu/arm920t/start.o
 .rel.u_boot_list_2_env_clbk_2_nvlan
                0x000000000007d528       0x10 arch/arm/cpu/arm920t/start.o
 .rel.text.raise
                0x000000000007d538        0x8 arch/arm/cpu/arm920t/start.o

.rel_dyn_end    0x000000000007d540        0x0
 *(.__rel_dyn_end)
 .__rel_dyn_end
                0x000000000007d540        0x0 arch/arm/lib/built-in.o

.end            0x000000000007d540        0x0
 *(.__end)
 .__end         0x000000000007d540        0x0 arch/arm/lib/built-in.o
                0x000000000007d540                _image_binary_end = .
                0x000000000007e000                . = ALIGN (0x1000)

.mmutable
 *(.mmutable)

.bss_start      0x00000000000740f8        0x0
 *(.__bss_start)
 .__bss_start   0x00000000000740f8        0x0 arch/arm/lib/built-in.o
                0x00000000000740f8                __bss_start
                0x00000000000740f8                __bss_base = .

.bss            0x00000000000740f8    0x4edf0
 *(.bss*)
 .bss.params    0x00000000000740f8        0x4 arch/arm/lib/built-in.o
 .bss.images    0x00000000000740fc      0x130 cmd/built-in.o
                0x00000000000740fc                images
 .bss.send_parms
                0x000000000007422c       0x14 cmd/built-in.o
 .bss.os_data_addr_saved
                0x0000000000074240        0x4 cmd/built-in.o
 .bss.his_pad_char
                0x0000000000074244        0x1 cmd/built-in.o
 .bss.a_b       0x0000000000074245       0x18 cmd/built-in.o
 *fill*         0x000000000007425d        0x3 
 .bss.os_data_char
                0x0000000000074260        0x4 cmd/built-in.o
 .bss.os_data_state
                0x0000000000074264        0x4 cmd/built-in.o
 .bss.k_data_escape
                0x0000000000074268        0x4 cmd/built-in.o
 .bss.os_data_state_saved
                0x000000000007426c        0x4 cmd/built-in.o
 .bss.os_data_addr
                0x0000000000074270        0x4 cmd/built-in.o
 .bss.send_ptr  0x0000000000074274        0x4 cmd/built-in.o
 .bss.his_pad_count
                0x0000000000074278        0x4 cmd/built-in.o
 .bss.bin_start_address
                0x000000000007427c        0x4 cmd/built-in.o
 .bss.his_quote
                0x0000000000074280        0x1 cmd/built-in.o
 *fill*         0x0000000000074281        0x3 
 .bss.os_data_init
                0x0000000000074284        0x4 cmd/built-in.o
 .bss.his_eol   0x0000000000074288        0x1 cmd/built-in.o
 *fill*         0x0000000000074289        0x3 
 .bss.k_data_escape_saved
                0x000000000007428c        0x4 cmd/built-in.o
 .bss.dp_last_addr
                0x0000000000074290        0x4 cmd/built-in.o
 .bss.base_address
                0x0000000000074294        0x4 cmd/built-in.o
 .bss.mm_last_size
                0x0000000000074298        0x4 cmd/built-in.o
 .bss.mm_last_addr
                0x000000000007429c        0x4 cmd/built-in.o
 .bss.dp_last_size
                0x00000000000742a0        0x4 cmd/built-in.o
 .bss.initialized.8344
                0x00000000000742a4        0x4 cmd/built-in.o
 .bss.last_ids  0x00000000000742a8       0x80 cmd/built-in.o
 .bss.current_mtd_dev
                0x0000000000074328        0x4 cmd/built-in.o
                0x0000000000074328                current_mtd_dev
 .bss.last_partition
                0x000000000007432c       0x10 cmd/built-in.o
 .bss.last_parts
                0x000000000007433c      0x200 cmd/built-in.o
 .bss.current_mtd_partnum
                0x000000000007453c        0x1 cmd/built-in.o
                0x000000000007453c                current_mtd_partnum
 *fill*         0x000000000007453d        0x3 
 .bss.mtdids    0x0000000000074540        0x8 cmd/built-in.o
 .bss.devices   0x0000000000074548        0x8 cmd/built-in.o
 *fill*         0x0000000000074550        0x0 
 .bss.last.8117
                0x0000000000074550        0x8 cmd/built-in.o
 .bss.ubi       0x0000000000074558        0x4 cmd/built-in.o
 .bss.ubi_dev   0x000000000007455c       0x5c cmd/built-in.o
 .bss.ubi_initialized
                0x00000000000745b8        0x4 cmd/built-in.o
 .bss.buffer    0x00000000000745bc       0x50 cmd/built-in.o
 .bss.ubifs_initialized
                0x000000000007460c        0x4 cmd/built-in.o
 .bss.ubifs_mounted
                0x0000000000074610        0x4 cmd/built-in.o
 .bss.flag_repeat
                0x0000000000074614        0x4 common/built-in.o
 .bss.the_command.6963
                0x0000000000074618      0x101 common/built-in.o
 .bss.buf.7163  0x0000000000074719       0x28 common/built-in.o
 *fill*         0x0000000000074741        0x3 
 .bss.ifs       0x0000000000074744        0x4 common/built-in.o
 .bss.last_return_code
                0x0000000000074748        0x4 common/built-in.o
 .bss.map       0x000000000007474c      0x100 common/built-in.o
 .bss.do_repeat
                0x000000000007484c        0x4 common/built-in.o
 .bss.top_vars  0x0000000000074850        0x4 common/built-in.o
 .bss.stored_bootdelay
                0x0000000000074854        0x4 common/built-in.o
 .bss.endtime   0x0000000000074858        0x8 common/built-in.o
 .bss.monitor_flash_len
                0x0000000000074860        0x4 common/built-in.o
                0x0000000000074860                monitor_flash_len
 .bss.callback_list
                0x0000000000074864        0x4 common/built-in.o
 .bss.flags_list
                0x0000000000074868        0x4 common/built-in.o
 .bss.dev_index
                0x000000000007486c        0x4 common/built-in.o
 *fill*         0x0000000000074870       0x10 
 .bss.usb_dev   0x0000000000074880    0x13000 common/built-in.o
 .bss.asynch_allowed
                0x0000000000087880        0x4 common/built-in.o
 .bss.usb_started
                0x0000000000087884        0x1 common/built-in.o
                0x0000000000087884                usb_started
 *fill*         0x0000000000087885        0x3 
 .bss.running.9201
                0x0000000000087888        0x4 common/built-in.o
 .bss.usb_hub_index
                0x000000000008788c        0x4 common/built-in.o
 .bss.hub_dev   0x0000000000087890      0x380 common/built-in.o
 .bss.usb_stor  0x0000000000087c10      0x16c common/built-in.o
 .bss.usb_dev_desc
                0x0000000000087d7c      0x32c common/built-in.o
 .bss.usb_max_devs
                0x00000000000880a8        0x4 common/built-in.o
 .bss.CBWTag    0x00000000000880ac        0x4 common/built-in.o
 *fill*         0x00000000000880b0       0x10 
 .bss.usb_ccb   0x00000000000880c0       0xc0 common/built-in.o
 .bss.kbd_testc_tms
                0x0000000000088180        0x4 common/built-in.o
 .bss.ctrlc_was_pressed
                0x0000000000088184        0x4 common/built-in.o
 .bss.ctrlc_disabled
                0x0000000000088188        0x4 common/built-in.o
 .bss.max_total_mem
                0x000000000008818c        0x4 common/built-in.o
 .bss.mem_malloc_brk
                0x0000000000088190        0x4 common/built-in.o
                0x0000000000088190                mem_malloc_brk
 .bss.max_sbrked_mem
                0x0000000000088194        0x4 common/built-in.o
 .bss.current_mallinfo
                0x0000000000088198       0x28 common/built-in.o
 .bss.mem_malloc_end
                0x00000000000881c0        0x4 common/built-in.o
                0x00000000000881c0                mem_malloc_end
 .bss.top_pad   0x00000000000881c4        0x4 common/built-in.o
 .bss.mem_malloc_start
                0x00000000000881c8        0x4 common/built-in.o
                0x00000000000881c8                mem_malloc_start
 .bss.stdio_devices
                0x00000000000881cc        0xc common/built-in.o
                0x00000000000881cc                stdio_devices
 .bss.devs      0x00000000000881d8       0x4c common/built-in.o
 .bss.hist_list
                0x0000000000088224       0x50 common/built-in.o
 .bss.hist_lines
                0x0000000000088274     0x1414 common/built-in.o
 .bss.hist_max  0x0000000000089688        0x4 common/built-in.o
 .bss.hist_add_idx
                0x000000000008968c        0x4 common/built-in.o
 .bss.initted.6808
                0x0000000000089690        0x4 common/built-in.o
 .bss.hist_num  0x0000000000089694        0x4 common/built-in.o
 .bss.console_buffer
                0x0000000000089698      0x101 common/built-in.o
                0x0000000000089698                console_buffer
 *fill*         0x0000000000089799        0x3 
 .bss.xyz       0x000000000008979c      0x434 common/built-in.o
 .bss.mtd_idr   0x0000000000089bd0      0x200 drivers/mtd/built-in.o
 .bss.saved_sector.9062
                0x0000000000089dd0        0x4 drivers/mtd/built-in.o
 .bss.saved_info.9063
                0x0000000000089dd4        0x4 drivers/mtd/built-in.o
 .bss.flash_info
                0x0000000000089dd8       0xa0 drivers/mtd/built-in.o
                0x0000000000089dd8                flash_info
 .bss.nand_info
                0x0000000000089e78       0xd0 drivers/mtd/nand/built-in.o
                0x0000000000089e78                nand_info
 .bss.nand_chip
                0x0000000000089f48      0x338 drivers/mtd/nand/built-in.o
 .bss.total_nand_size
                0x000000000008a280        0x4 drivers/mtd/nand/built-in.o
 .bss.dev_name  0x000000000008a284        0x8 drivers/mtd/nand/built-in.o
 .bss.vidh      0x000000000008a28c        0x4 drivers/mtd/ubi/built-in.o
 .bss.ech       0x000000000008a290        0x4 drivers/mtd/ubi/built-in.o
 .bss.mtd_devs  0x000000000008a294        0x4 drivers/mtd/ubi/built-in.o
 .bss.ubi_wl_entry_slab
                0x000000000008a298        0x4 drivers/mtd/ubi/built-in.o
                0x000000000008a298                ubi_wl_entry_slab
 .bss.ubi_devices
                0x000000000008a29c       0x80 drivers/mtd/ubi/built-in.o
                0x000000000008a29c                ubi_devices
 .bss.mtd_dev_param
                0x000000000008a31c      0x980 drivers/mtd/ubi/built-in.o
 .bss.empty_vtbl_record
                0x000000000008ac9c       0xac drivers/mtd/ubi/built-in.o
 .bss.serial_devices
                0x000000000008ad48        0x4 drivers/serial/built-in.o
 .bss.serial_current
                0x000000000008ad4c        0x4 drivers/serial/built-in.o
 *fill*         0x000000000008ad50       0xb0 
 .bss.ghcca     0x000000000008ae00      0x100 drivers/usb/host/built-in.o
                0x000000000008ae00                ghcca
 .bss.got_rhsc  0x000000000008af00        0x4 drivers/usb/host/built-in.o
                0x000000000008af00                got_rhsc
 .bss.ptd       0x000000000008af04        0x4 drivers/usb/host/built-in.o
                0x000000000008af04                ptd
 .bss.ohci_inited
                0x000000000008af08        0x1 drivers/usb/host/built-in.o
 *fill*         0x000000000008af09        0x3 
 .bss.gohci     0x000000000008af0c       0xc8 drivers/usb/host/built-in.o
 .bss.urb_priv  0x000000000008afd4       0xd4 drivers/usb/host/built-in.o
                0x000000000008afd4                urb_priv
 .bss.devgone   0x000000000008b0a8        0x4 drivers/usb/host/built-in.o
                0x000000000008b0a8                devgone
 *fill*         0x000000000008b0ac       0x14 
 .bss.gtd       0x000000000008b0c0     0x1040 drivers/usb/host/built-in.o
                0x000000000008b0c0                gtd
 .bss.ohci_dev  0x000000000008c100      0x190 drivers/usb/host/built-in.o
                0x000000000008c100                ohci_dev
 .bss.urb_finished
                0x000000000008c290        0x4 drivers/usb/host/built-in.o
                0x000000000008c290                urb_finished
 .bss.phcca     0x000000000008c294        0x4 drivers/usb/host/built-in.o
                0x000000000008c294                phcca
 .bss.fs_partition
                0x000000000008c298       0x50 fs/built-in.o
 .bss.fs_type   0x000000000008c2e8        0x4 fs/built-in.o
 .bss.fs_dev_desc
                0x000000000008c2ec        0x4 fs/built-in.o
 .bss.ext_fs    0x000000000008c2f0       0x48 fs/built-in.o
                0x000000000008c2f0                ext_fs
 .bss.ext4fs_indir3_block
                0x000000000008c338        0x4 fs/built-in.o
                0x000000000008c338                ext4fs_indir3_block
 .bss.ext4fs_root
                0x000000000008c33c        0x4 fs/built-in.o
                0x000000000008c33c                ext4fs_root
 .bss.ext4fs_indir3_size
                0x000000000008c340        0x4 fs/built-in.o
                0x000000000008c340                ext4fs_indir3_size
 .bss.ext4fs_indir1_block
                0x000000000008c344        0x4 fs/built-in.o
                0x000000000008c344                ext4fs_indir1_block
 .bss.ext4fs_indir2_size
                0x000000000008c348        0x4 fs/built-in.o
                0x000000000008c348                ext4fs_indir2_size
 .bss.ext4fs_indir2_block
                0x000000000008c34c        0x4 fs/built-in.o
                0x000000000008c34c                ext4fs_indir2_block
 .bss.ext4fs_indir1_size
                0x000000000008c350        0x4 fs/built-in.o
                0x000000000008c350                ext4fs_indir1_size
 .bss.symlinknest
                0x000000000008c354        0x4 fs/built-in.o
 .bss.ext4fs_file
                0x000000000008c358        0x4 fs/built-in.o
                0x000000000008c358                ext4fs_file
 .bss.part_info
                0x000000000008c35c        0x4 fs/built-in.o
 .bss.part_offset
                0x000000000008c360        0x4 fs/built-in.o
                0x000000000008c360                part_offset
 .bss.ext4fs_blk_desc
                0x000000000008c364        0x4 fs/built-in.o
 *fill*         0x000000000008c368       0x18 
 .bss.do_fat_read_at_block
                0x000000000008c380    0x10000 fs/built-in.o
                0x000000000008c380                do_fat_read_at_block
 .bss.get_dentfromdir_block
                0x000000000009c380    0x10000 fs/built-in.o
                0x000000000009c380                get_dentfromdir_block
 .bss.cur_part_info
                0x00000000000ac380       0x50 fs/built-in.o
 *fill*         0x00000000000ac3d0       0x30 
 .bss.get_contents_vfatname_block
                0x00000000000ac400    0x10000 fs/built-in.o
                0x00000000000ac400                get_contents_vfatname_block
 .bss.cur_dev   0x00000000000bc400        0x4 fs/built-in.o
 .bss.ubifs_compressors
                0x00000000000bc404        0xc fs/built-in.o
                0x00000000000bc404                ubifs_compressors
 .bss.ubifs_clean_zn_cnt
                0x00000000000bc410        0x4 fs/built-in.o
                0x00000000000bc410                ubifs_clean_zn_cnt
 .bss.ubifs_sb  0x00000000000bc414        0x4 fs/built-in.o
                0x00000000000bc414                ubifs_sb
 .bss.inodes_locked_down
                0x00000000000bc418      0x100 fs/built-in.o
 .bss.ubifs_inode_slab
                0x00000000000bc518        0x4 fs/built-in.o
                0x00000000000bc518                ubifs_inode_slab
 .bss.yaffs_trace_mask
                0x00000000000bc51c        0x4 fs/built-in.o
                0x00000000000bc51c                yaffs_trace_mask
 .bss.yaffs_errno
                0x00000000000bc520        0x4 fs/built-in.o
 .bss.yaffs_wr_attempts
                0x00000000000bc524        0x4 fs/built-in.o
                0x00000000000bc524                yaffs_wr_attempts
 .bss.yaffsfs_dsc
                0x00000000000bc528     0x2b20 fs/built-in.o
 .bss.yaffsfs_handle
                0x00000000000bf048      0x190 fs/built-in.o
 .bss.dev_iterator
                0x00000000000bf1d8        0x4 fs/built-in.o
 .bss.yaffsfs_inode
                0x00000000000bf1dc      0x320 fs/built-in.o
 *fill*         0x00000000000bf4fc        0x4 
 .bss.yaffsfs_fd
                0x00000000000bf500      0x640 fs/built-in.o
 .bss.search_contexts
                0x00000000000bfb40        0x8 fs/built-in.o
 .bss.init.7845
                0x00000000000bfb48        0x4 fs/built-in.o
 .bss.spare_ff.7844
                0x00000000000bfb4c       0x10 fs/built-in.o
 .bss.init.7861
                0x00000000000bfb5c        0x4 fs/built-in.o
 .bss.spare_ff.7860
                0x00000000000bfb60       0x10 fs/built-in.o
 .bss.yaffs_free_verification_failures
                0x00000000000bfb70        0x4 fs/built-in.o
 .bss.errno     0x00000000000bfb74        0x4 lib/built-in.o
                0x00000000000bfb74                errno
 .bss.local.6905
                0x00000000000bfb78       0x16 lib/built-in.o
 .bss.arp_tx_packet_buf
                0x00000000000bfb8e      0x640 net/built-in.o
 *fill*         0x00000000000c01ce        0x2 
 .bss.arp_wait_packet_ethaddr
                0x00000000000c01d0        0x4 net/built-in.o
                0x00000000000c01d0                arp_wait_packet_ethaddr
 .bss.arp_tx_packet
                0x00000000000c01d4        0x4 net/built-in.o
 .bss.arp_wait_tx_packet_size
                0x00000000000c01d8        0x4 net/built-in.o
                0x00000000000c01d8                arp_wait_tx_packet_size
 .bss.arp_wait_try
                0x00000000000c01dc        0x4 net/built-in.o
                0x00000000000c01dc                arp_wait_try
 .bss.net_arp_wait_reply_ip
                0x00000000000c01e0        0x4 net/built-in.o
 .bss.net_arp_wait_packet_ip
                0x00000000000c01e4        0x4 net/built-in.o
                0x00000000000c01e4                net_arp_wait_packet_ip
 .bss.arp_wait_timer_start
                0x00000000000c01e8        0x4 net/built-in.o
                0x00000000000c01e8                arp_wait_timer_start
 .bss.dhcp_state
                0x00000000000c01ec        0x4 net/built-in.o
 .bss.net_hostname
                0x00000000000c01f0       0x20 net/built-in.o
                0x00000000000c01f0                net_hostname
 .bss.bootp_timeout
                0x00000000000c0210        0x4 net/built-in.o
                0x00000000000c0210                bootp_timeout
 .bss.dhcp_server_ip
                0x00000000000c0214        0x4 net/built-in.o
 .bss.dhcp_option_overload
                0x00000000000c0218        0x1 net/built-in.o
 *fill*         0x00000000000c0219        0x3 
 .bss.time_taken_max
                0x00000000000c021c        0x4 net/built-in.o
 .bss.net_root_path
                0x00000000000c0220       0x40 net/built-in.o
                0x00000000000c0220                net_root_path
 .bss.bootp_ids
                0x00000000000c0260       0x10 net/built-in.o
                0x00000000000c0260                bootp_ids
 .bss.bootp_num_ids
                0x00000000000c0270        0x4 net/built-in.o
                0x00000000000c0270                bootp_num_ids
 .bss.bootp_try
                0x00000000000c0274        0x4 net/built-in.o
                0x00000000000c0274                bootp_try
 .bss.bootp_start
                0x00000000000c0278        0x4 net/built-in.o
                0x00000000000c0278                bootp_start
 .bss.dhcp_leasetime
                0x00000000000c027c        0x4 net/built-in.o
 .bss.net_nis_domain
                0x00000000000c0280       0x20 net/built-in.o
                0x00000000000c0280                net_nis_domain
 .bss.eth_current
                0x00000000000c02a0        0x4 net/built-in.o
                0x00000000000c02a0                eth_current
 .bss.eth_devices
                0x00000000000c02a4        0x4 net/built-in.o
 .bss.index.7243
                0x00000000000c02a8        0x4 net/built-in.o
 .bss.env_changed_id.8837
                0x00000000000c02ac        0x4 net/built-in.o
 .bss.act.8836  0x00000000000c02b0        0x4 net/built-in.o
 .bss.first_failed.8831
                0x00000000000c02b4        0x4 net/built-in.o
 .bss.net_ethaddr
                0x00000000000c02b8        0x6 net/built-in.o
                0x00000000000c02b8                net_ethaddr
 *fill*         0x00000000000c02be        0x2 
 .bss.net_dns_server
                0x00000000000c02c0        0x4 net/built-in.o
                0x00000000000c02c0                net_dns_server
 .bss.net_state
                0x00000000000c02c4        0x4 net/built-in.o
                0x00000000000c02c4                net_state
 .bss.net_server_ip
                0x00000000000c02c8        0x4 net/built-in.o
                0x00000000000c02c8                net_server_ip
 .bss.net_rx_packet
                0x00000000000c02cc        0x4 net/built-in.o
                0x00000000000c02cc                net_rx_packet
 .bss.time_handler
                0x00000000000c02d0        0x4 net/built-in.o
 .bss.net_rx_packets
                0x00000000000c02d4       0x10 net/built-in.o
                0x00000000000c02d4                net_rx_packets
 .bss.time_start
                0x00000000000c02e4        0x8 net/built-in.o
 .bss.net_gateway
                0x00000000000c02ec        0x4 net/built-in.o
                0x00000000000c02ec                net_gateway
 .bss.net_server_ethaddr
                0x00000000000c02f0        0x6 net/built-in.o
                0x00000000000c02f0                net_server_ethaddr
 .bss.net_boot_file_name
                0x00000000000c02f6      0x400 net/built-in.o
                0x00000000000c02f6                net_boot_file_name
 *fill*         0x00000000000c06f6        0x2 
 .bss.udp_packet_handler
                0x00000000000c06f8        0x4 net/built-in.o
 .bss.net_dev_exists
                0x00000000000c06fc        0x4 net/built-in.o
 .bss.net_try_count
                0x00000000000c0700        0x4 net/built-in.o
 .bss.net_boot_file_expected_size_in_blocks
                0x00000000000c0704        0x4 net/built-in.o
                0x00000000000c0704                net_boot_file_expected_size_in_blocks
 .bss.net_null_ethaddr
                0x00000000000c0708        0x6 net/built-in.o
                0x00000000000c0708                net_null_ethaddr
 *fill*         0x00000000000c070e        0x2 
 .bss.net_ip_id
                0x00000000000c0710        0x4 net/built-in.o
 .bss.net_restart_wrap
                0x00000000000c0714        0x4 net/built-in.o
                0x00000000000c0714                net_restart_wrap
 .bss.net_busy_flag
                0x00000000000c0718        0x4 net/built-in.o
                0x00000000000c0718                net_busy_flag
 .bss.net_restarted
                0x00000000000c071c        0x4 net/built-in.o
 .bss.time_delta
                0x00000000000c0720        0x4 net/built-in.o
 .bss.arp_packet_handler
                0x00000000000c0724        0x4 net/built-in.o
 .bss.net_netmask
                0x00000000000c0728        0x4 net/built-in.o
                0x00000000000c0728                net_netmask
 .bss.net_pkt_buf
                0x00000000000c072c     0x1e40 net/built-in.o
 .bss.net_ip    0x00000000000c256c        0x4 net/built-in.o
                0x00000000000c256c                net_ip
 .bss.net_rx_packet_len
                0x00000000000c2570        0x4 net/built-in.o
                0x00000000000c2570                net_rx_packet_len
 .bss.net_tx_packet
                0x00000000000c2574        0x4 net/built-in.o
                0x00000000000c2574                net_tx_packet
 .bss.net_boot_file_size
                0x00000000000c2578        0x4 net/built-in.o
                0x00000000000c2578                net_boot_file_size
 .bss.nfs_server_mount_port
                0x00000000000c257c        0x4 net/built-in.o
 .bss.nfs_server_ip
                0x00000000000c2580        0x4 net/built-in.o
 .bss.nfs_filename
                0x00000000000c2584        0x4 net/built-in.o
 .bss.nfs_state
                0x00000000000c2588        0x4 net/built-in.o
 .bss.dirfh     0x00000000000c258c       0x20 net/built-in.o
 .bss.nfs_len   0x00000000000c25ac        0x4 net/built-in.o
 .bss.rpc_id    0x00000000000c25b0        0x4 net/built-in.o
 .bss.fs_mounted
                0x00000000000c25b4        0x4 net/built-in.o
 .bss.default_filename
                0x00000000000c25b8       0x4d net/built-in.o
 *fill*         0x00000000000c2605        0x3 
 .bss.nfs_server_port
                0x00000000000c2608        0x4 net/built-in.o
 .bss.nfs_download_state
                0x00000000000c260c        0x4 net/built-in.o
 .bss.nfs_path  0x00000000000c2610        0x4 net/built-in.o
 .bss.filefh    0x00000000000c2614       0x20 net/built-in.o
 .bss.nfs_path_buff
                0x00000000000c2634      0x800 net/built-in.o
 .bss.nfs_timeout_count
                0x00000000000c2e34        0x4 net/built-in.o
 .bss.nfs_our_port
                0x00000000000c2e38        0x4 net/built-in.o
 .bss.net_ping_ip
                0x00000000000c2e3c        0x4 net/built-in.o
                0x00000000000c2e3c                net_ping_ip
 .bss.ping_seq_number
                0x00000000000c2e40        0x2 net/built-in.o
 *fill*         0x00000000000c2e42        0x2 
 .bss.tftp_prev_block
                0x00000000000c2e44        0x4 net/built-in.o
 .bss.timeout_count
                0x00000000000c2e48        0x4 net/built-in.o
 .bss.tftp_block_wrap
                0x00000000000c2e4c        0x4 net/built-in.o
 .bss.tftp_remote_port
                0x00000000000c2e50        0x4 net/built-in.o
 .bss.tftp_cur_block
                0x00000000000c2e54        0x4 net/built-in.o
 .bss.tftp_remote_ip
                0x00000000000c2e58        0x4 net/built-in.o
 .bss.tftp_our_port
                0x00000000000c2e5c        0x4 net/built-in.o
 .bss.tftp_state
                0x00000000000c2e60        0x4 net/built-in.o
 .bss.tftp_filename
                0x00000000000c2e64       0x80 net/built-in.o
 .bss.tftp_block_wrap_offset
                0x00000000000c2ee4        0x4 net/built-in.o
                0x00000000000c2ee8                . = ALIGN (0x4)
                0x00000000000c2ee8                __bss_limit = .

.bss_end        0x00000000000c2ee8        0x0
 *(.__bss_end)
 .__bss_end     0x00000000000c2ee8        0x0 arch/arm/lib/built-in.o
                0x00000000000c2ee8                __bss_end

.dynsym         0x000000000007d540       0x60
 *(.dynsym)
 .dynsym        0x000000000007d540       0x60 arch/arm/cpu/arm920t/start.o

.dynbss         0x000000000007d5a0        0x0
 *(.dynbss)
 .dynbss        0x000000000007d5a0        0x0 arch/arm/cpu/arm920t/start.o

.dynstr         0x000000000007d5a0       0x2a
 *(.dynstr*)
 .dynstr        0x000000000007d5a0       0x2a arch/arm/cpu/arm920t/start.o

.dynamic        0x000000000007d5cc       0x80
 *(.dynamic*)
 .dynamic       0x000000000007d5cc       0x80 arch/arm/cpu/arm920t/start.o
                0x000000000007d5cc                _DYNAMIC

.plt            0x000000000007d64c        0x0
 *(.plt*)
 .plt           0x000000000007d64c        0x0 arch/arm/cpu/arm920t/start.o

.interp         0x000000000007d64c       0x11
 *(.interp*)
 .interp        0x000000000007d64c       0x11 arch/arm/cpu/arm920t/start.o

.gnu.hash
 *(.gnu.hash)

.gnu            0x000000000007d660        0x0
 *(.gnu*)
 .gnu.version_d
                0x000000000007d660        0x0 arch/arm/cpu/arm920t/start.o
 .gnu.version   0x000000000007d660        0x0 arch/arm/cpu/arm920t/start.o
 .gnu.version_r
                0x000000000007d660        0x0 arch/arm/cpu/arm920t/start.o

.ARM.exidx
 *(.ARM.exidx*)

.gnu.linkonce.armexidx
 *(.gnu.linkonce.armexidx.*)
LOAD arch/arm/cpu/arm920t/start.o
START GROUP
LOAD arch/arm/cpu/built-in.o
LOAD arch/arm/cpu/arm920t/built-in.o
LOAD arch/arm/lib/built-in.o
LOAD board/samsung/common/built-in.o
LOAD board/samsung/smdk2410/built-in.o
LOAD cmd/built-in.o
LOAD common/built-in.o
LOAD disk/built-in.o
LOAD drivers/built-in.o
LOAD drivers/dma/built-in.o
LOAD drivers/gpio/built-in.o
LOAD drivers/i2c/built-in.o
LOAD drivers/mmc/built-in.o
LOAD drivers/mtd/built-in.o
LOAD drivers/mtd/nand/built-in.o
LOAD drivers/mtd/onenand/built-in.o
LOAD drivers/mtd/spi/built-in.o
LOAD drivers/mtd/ubi/built-in.o
LOAD drivers/net/built-in.o
LOAD drivers/net/phy/built-in.o
LOAD drivers/pci/built-in.o
LOAD drivers/power/built-in.o
LOAD drivers/power/battery/built-in.o
LOAD drivers/power/fuel_gauge/built-in.o
LOAD drivers/power/mfd/built-in.o
LOAD drivers/power/pmic/built-in.o
LOAD drivers/power/regulator/built-in.o
LOAD drivers/serial/built-in.o
LOAD drivers/spi/built-in.o
LOAD drivers/usb/common/built-in.o
LOAD drivers/usb/dwc3/built-in.o
LOAD drivers/usb/emul/built-in.o
LOAD drivers/usb/eth/built-in.o
LOAD drivers/usb/gadget/built-in.o
LOAD drivers/usb/gadget/udc/built-in.o
LOAD drivers/usb/host/built-in.o
LOAD drivers/usb/musb-new/built-in.o
LOAD drivers/usb/musb/built-in.o
LOAD drivers/usb/phy/built-in.o
LOAD drivers/usb/ulpi/built-in.o
LOAD fs/built-in.o
LOAD lib/built-in.o
LOAD net/built-in.o
LOAD test/built-in.o
LOAD test/dm/built-in.o
END GROUP
LOAD arch/arm/lib/eabi_compat.o
LOAD /home/gmf/uboot/toolchain/x-tools/arm-s3c2440-linux-gnueabi/lib/gcc/arm-s3c2440-linux-gnueabi/5.2.0/libgcc.a
OUTPUT(u-boot elf32-littlearm)

.ARM.attributes
                0x0000000000000000       0x26
 .ARM.attributes
                0x0000000000000000       0x1a arch/arm/cpu/arm920t/start.o
 .ARM.attributes
                0x000000000000001a       0x2a arch/arm/cpu/arm920t/built-in.o
 .ARM.attributes
                0x0000000000000044       0x26 arch/arm/lib/built-in.o
 .ARM.attributes
                0x000000000000006a       0x28 board/samsung/smdk2410/built-in.o
 .ARM.attributes
                0x0000000000000092       0x2a cmd/built-in.o
 .ARM.attributes
                0x00000000000000bc       0x2a common/built-in.o
 .ARM.attributes
                0x00000000000000e6       0x2a disk/built-in.o
 .ARM.attributes
                0x0000000000000110       0x2a drivers/built-in.o
 .ARM.attributes
                0x000000000000013a       0x2a drivers/mtd/built-in.o
 .ARM.attributes
                0x0000000000000164       0x2a drivers/mtd/nand/built-in.o
 .ARM.attributes
                0x000000000000018e       0x2a drivers/mtd/ubi/built-in.o
 .ARM.attributes
                0x00000000000001b8       0x2a drivers/net/built-in.o
 .ARM.attributes
                0x00000000000001e2       0x2a drivers/serial/built-in.o
 .ARM.attributes
                0x000000000000020c       0x2a drivers/usb/host/built-in.o
 .ARM.attributes
                0x0000000000000236       0x2a fs/built-in.o
 .ARM.attributes
                0x0000000000000260       0x2a lib/built-in.o
 .ARM.attributes
                0x000000000000028a       0x2a net/built-in.o
 .ARM.attributes
                0x00000000000002b4       0x2a arch/arm/lib/eabi_compat.o
 .ARM.attributes
                0x00000000000002de       0x21 /home/gmf/uboot/toolchain/x-tools/arm-s3c2440-linux-gnueabi/lib/gcc/arm-s3c2440-linux-gnueabi/5.2.0/libgcc.a(_udivsi3.o)
 .ARM.attributes
                0x00000000000002ff       0x21 /home/gmf/uboot/toolchain/x-tools/arm-s3c2440-linux-gnueabi/lib/gcc/arm-s3c2440-linux-gnueabi/5.2.0/libgcc.a(_divsi3.o)
 .ARM.attributes
                0x0000000000000320       0x21 /home/gmf/uboot/toolchain/x-tools/arm-s3c2440-linux-gnueabi/lib/gcc/arm-s3c2440-linux-gnueabi/5.2.0/libgcc.a(_lshrdi3.o)
 .ARM.attributes
                0x0000000000000341       0x21 /home/gmf/uboot/toolchain/x-tools/arm-s3c2440-linux-gnueabi/lib/gcc/arm-s3c2440-linux-gnueabi/5.2.0/libgcc.a(_ashrdi3.o)
 .ARM.attributes
                0x0000000000000362       0x21 /home/gmf/uboot/toolchain/x-tools/arm-s3c2440-linux-gnueabi/lib/gcc/arm-s3c2440-linux-gnueabi/5.2.0/libgcc.a(_ashldi3.o)
 .ARM.attributes
                0x0000000000000383       0x21 /home/gmf/uboot/toolchain/x-tools/arm-s3c2440-linux-gnueabi/lib/gcc/arm-s3c2440-linux-gnueabi/5.2.0/libgcc.a(_dvmd_lnx.o)

.comment        0x0000000000000000       0x3c
 .comment       0x0000000000000000       0x3c arch/arm/cpu/arm920t/built-in.o
                                         0xf4 (size before relaxing)
 .comment       0x000000000000003c      0x1ab arch/arm/lib/built-in.o
 .comment       0x000000000000003c       0x3d board/samsung/smdk2410/built-in.o
 .comment       0x000000000000003c      0x7a0 cmd/built-in.o
 .comment       0x000000000000003c      0x7dd common/built-in.o
 .comment       0x000000000000003c       0x7a disk/built-in.o
 .comment       0x000000000000003c      0x131 drivers/built-in.o
 .comment       0x000000000000003c      0x131 drivers/mtd/built-in.o
 .comment       0x000000000000003c      0x1e8 drivers/mtd/nand/built-in.o
 .comment       0x000000000000003c      0x2dc drivers/mtd/ubi/built-in.o
 .comment       0x000000000000003c       0x3d drivers/net/built-in.o
 .comment       0x000000000000003c       0x7a drivers/serial/built-in.o
 .comment       0x000000000000003c       0x3d drivers/usb/host/built-in.o
 .comment       0x000000000000003c      0xaf6 fs/built-in.o
 .comment       0x000000000000003c      0x90e lib/built-in.o
 .comment       0x000000000000003c      0x225 net/built-in.o
 .comment       0x000000000000003c       0x3d arch/arm/lib/eabi_compat.o

.note.GNU-stack
                0x0000000000000000        0x0
 .note.GNU-stack
                0x0000000000000000        0x0 arch/arm/cpu/arm920t/built-in.o
 .note.GNU-stack
                0x0000000000000000        0x0 arch/arm/lib/built-in.o
 .note.GNU-stack
                0x0000000000000000        0x0 board/samsung/smdk2410/built-in.o
 .note.GNU-stack
                0x0000000000000000        0x0 cmd/built-in.o
 .note.GNU-stack
                0x0000000000000000        0x0 common/built-in.o
 .note.GNU-stack
                0x0000000000000000        0x0 disk/built-in.o
 .note.GNU-stack
                0x0000000000000000        0x0 drivers/built-in.o
 .note.GNU-stack
                0x0000000000000000        0x0 drivers/mtd/built-in.o
 .note.GNU-stack
                0x0000000000000000        0x0 drivers/mtd/nand/built-in.o
 .note.GNU-stack
                0x0000000000000000        0x0 drivers/mtd/ubi/built-in.o
 .note.GNU-stack
                0x0000000000000000        0x0 drivers/net/built-in.o
 .note.GNU-stack
                0x0000000000000000        0x0 drivers/serial/built-in.o
 .note.GNU-stack
                0x0000000000000000        0x0 drivers/usb/host/built-in.o
 .note.GNU-stack
                0x0000000000000000        0x0 fs/built-in.o
 .note.GNU-stack
                0x0000000000000000        0x0 lib/built-in.o
 .note.GNU-stack
                0x0000000000000000        0x0 net/built-in.o
 .note.GNU-stack
                0x0000000000000000        0x0 arch/arm/lib/eabi_compat.o
 .note.GNU-stack
                0x0000000000000000        0x0 /home/gmf/uboot/toolchain/x-tools/arm-s3c2440-linux-gnueabi/lib/gcc/arm-s3c2440-linux-gnueabi/5.2.0/libgcc.a(_udivsi3.o)
 .note.GNU-stack
                0x0000000000000000        0x0 /home/gmf/uboot/toolchain/x-tools/arm-s3c2440-linux-gnueabi/lib/gcc/arm-s3c2440-linux-gnueabi/5.2.0/libgcc.a(_divsi3.o)
 .note.GNU-stack
                0x0000000000000000        0x0 /home/gmf/uboot/toolchain/x-tools/arm-s3c2440-linux-gnueabi/lib/gcc/arm-s3c2440-linux-gnueabi/5.2.0/libgcc.a(_lshrdi3.o)
 .note.GNU-stack
                0x0000000000000000        0x0 /home/gmf/uboot/toolchain/x-tools/arm-s3c2440-linux-gnueabi/lib/gcc/arm-s3c2440-linux-gnueabi/5.2.0/libgcc.a(_ashrdi3.o)
 .note.GNU-stack
                0x0000000000000000        0x0 /home/gmf/uboot/toolchain/x-tools/arm-s3c2440-linux-gnueabi/lib/gcc/arm-s3c2440-linux-gnueabi/5.2.0/libgcc.a(_ashldi3.o)
 .note.GNU-stack
                0x0000000000000000        0x0 /home/gmf/uboot/toolchain/x-tools/arm-s3c2440-linux-gnueabi/lib/gcc/arm-s3c2440-linux-gnueabi/5.2.0/libgcc.a(_dvmd_lnx.o)

.debug_line     0x0000000000000000    0x2af53
 .debug_line    0x0000000000000000       0x76 arch/arm/cpu/arm920t/start.o
 .debug_line    0x0000000000000076      0x539 arch/arm/cpu/arm920t/built-in.o
 .debug_line    0x00000000000005af      0xb50 arch/arm/lib/built-in.o
 .debug_line    0x00000000000010ff      0x20b board/samsung/smdk2410/built-in.o
 .debug_line    0x000000000000130a     0x49bd cmd/built-in.o
 .debug_line    0x0000000000005cc7     0x5f4c common/built-in.o
 .debug_line    0x000000000000bc13      0x5bb disk/built-in.o
 .debug_line    0x000000000000c1ce      0x7c5 drivers/built-in.o
 .debug_line    0x000000000000c993     0x16c1 drivers/mtd/built-in.o
 .debug_line    0x000000000000e054     0x23a4 drivers/mtd/nand/built-in.o
 .debug_line    0x00000000000103f8     0x3f7b drivers/mtd/ubi/built-in.o
 .debug_line    0x0000000000014373      0x30b drivers/net/built-in.o
 .debug_line    0x000000000001467e      0x660 drivers/serial/built-in.o
 .debug_line    0x0000000000014cde      0x604 drivers/usb/host/built-in.o
 .debug_line    0x00000000000152e2     0xe2a4 fs/built-in.o
 .debug_line    0x0000000000023586     0x583a lib/built-in.o
 .debug_line    0x0000000000028dc0     0x1d37 net/built-in.o
 .debug_line    0x000000000002aaf7      0x113 arch/arm/lib/eabi_compat.o
 .debug_line    0x000000000002ac0a       0x9a /home/gmf/uboot/toolchain/x-tools/arm-s3c2440-linux-gnueabi/lib/gcc/arm-s3c2440-linux-gnueabi/5.2.0/libgcc.a(_udivsi3.o)
 .debug_line    0x000000000002aca4       0xa6 /home/gmf/uboot/toolchain/x-tools/arm-s3c2440-linux-gnueabi/lib/gcc/arm-s3c2440-linux-gnueabi/5.2.0/libgcc.a(_divsi3.o)
 .debug_line    0x000000000002ad4a       0x83 /home/gmf/uboot/toolchain/x-tools/arm-s3c2440-linux-gnueabi/lib/gcc/arm-s3c2440-linux-gnueabi/5.2.0/libgcc.a(_lshrdi3.o)
 .debug_line    0x000000000002adcd       0x83 /home/gmf/uboot/toolchain/x-tools/arm-s3c2440-linux-gnueabi/lib/gcc/arm-s3c2440-linux-gnueabi/5.2.0/libgcc.a(_ashrdi3.o)
 .debug_line    0x000000000002ae50       0x83 /home/gmf/uboot/toolchain/x-tools/arm-s3c2440-linux-gnueabi/lib/gcc/arm-s3c2440-linux-gnueabi/5.2.0/libgcc.a(_ashldi3.o)
 .debug_line    0x000000000002aed3       0x80 /home/gmf/uboot/toolchain/x-tools/arm-s3c2440-linux-gnueabi/lib/gcc/arm-s3c2440-linux-gnueabi/5.2.0/libgcc.a(_dvmd_lnx.o)

.debug_info     0x0000000000000000   0x13de7c
 .debug_info    0x0000000000000000       0x6b arch/arm/cpu/arm920t/start.o
 .debug_info    0x000000000000006b     0x19c6 arch/arm/cpu/arm920t/built-in.o
 .debug_info    0x0000000000001a31     0x3c21 arch/arm/lib/built-in.o
 .debug_info    0x0000000000005652      0xdb7 board/samsung/smdk2410/built-in.o
 .debug_info    0x0000000000006409    0x20548 cmd/built-in.o
 .debug_info    0x0000000000026951    0x23f57 common/built-in.o
 .debug_info    0x000000000004a8a8     0x25ea disk/built-in.o
 .debug_info    0x000000000004ce92     0x3051 drivers/built-in.o
 .debug_info    0x000000000004fee3     0x88da drivers/mtd/built-in.o
 .debug_info    0x00000000000587bd    0x11a28 drivers/mtd/nand/built-in.o
 .debug_info    0x000000000006a1e5    0x20eae drivers/mtd/ubi/built-in.o
 .debug_info    0x000000000008b093     0x15b4 drivers/net/built-in.o
 .debug_info    0x000000000008c647     0x20e1 drivers/serial/built-in.o
 .debug_info    0x000000000008e728     0x3275 drivers/usb/host/built-in.o
 .debug_info    0x000000000009199d    0x8c7b0 fs/built-in.o
 .debug_info    0x000000000011e14d    0x1455e lib/built-in.o
 .debug_info    0x00000000001326ab     0xadc4 net/built-in.o
 .debug_info    0x000000000013d46f      0x491 arch/arm/lib/eabi_compat.o
 .debug_info    0x000000000013d900       0xea /home/gmf/uboot/toolchain/x-tools/arm-s3c2440-linux-gnueabi/lib/gcc/arm-s3c2440-linux-gnueabi/5.2.0/libgcc.a(_udivsi3.o)
 .debug_info    0x000000000013d9ea       0xea /home/gmf/uboot/toolchain/x-tools/arm-s3c2440-linux-gnueabi/lib/gcc/arm-s3c2440-linux-gnueabi/5.2.0/libgcc.a(_divsi3.o)
 .debug_info    0x000000000013dad4       0xea /home/gmf/uboot/toolchain/x-tools/arm-s3c2440-linux-gnueabi/lib/gcc/arm-s3c2440-linux-gnueabi/5.2.0/libgcc.a(_lshrdi3.o)
 .debug_info    0x000000000013dbbe       0xea /home/gmf/uboot/toolchain/x-tools/arm-s3c2440-linux-gnueabi/lib/gcc/arm-s3c2440-linux-gnueabi/5.2.0/libgcc.a(_ashrdi3.o)
 .debug_info    0x000000000013dca8       0xea /home/gmf/uboot/toolchain/x-tools/arm-s3c2440-linux-gnueabi/lib/gcc/arm-s3c2440-linux-gnueabi/5.2.0/libgcc.a(_ashldi3.o)
 .debug_info    0x000000000013dd92       0xea /home/gmf/uboot/toolchain/x-tools/arm-s3c2440-linux-gnueabi/lib/gcc/arm-s3c2440-linux-gnueabi/5.2.0/libgcc.a(_dvmd_lnx.o)

.debug_abbrev   0x0000000000000000    0x28426
 .debug_abbrev  0x0000000000000000       0x14 arch/arm/cpu/arm920t/start.o
 .debug_abbrev  0x0000000000000014      0x7b1 arch/arm/cpu/arm920t/built-in.o
 .debug_abbrev  0x00000000000007c5      0xe5c arch/arm/lib/built-in.o
 .debug_abbrev  0x0000000000001621      0x2a6 board/samsung/smdk2410/built-in.o
 .debug_abbrev  0x00000000000018c7     0x543f cmd/built-in.o
 .debug_abbrev  0x0000000000006d06     0x61a1 common/built-in.o
 .debug_abbrev  0x000000000000cea7      0x7b1 disk/built-in.o
 .debug_abbrev  0x000000000000d658      0x990 drivers/built-in.o
 .debug_abbrev  0x000000000000dfe8     0x1281 drivers/mtd/built-in.o
 .debug_abbrev  0x000000000000f269     0x1a8b drivers/mtd/nand/built-in.o
 .debug_abbrev  0x0000000000010cf4     0x3839 drivers/mtd/ubi/built-in.o
 .debug_abbrev  0x000000000001452d      0x3f2 drivers/net/built-in.o
 .debug_abbrev  0x000000000001491f      0x75a drivers/serial/built-in.o
 .debug_abbrev  0x0000000000015079      0x484 drivers/usb/host/built-in.o
 .debug_abbrev  0x00000000000154fd     0xc15e fs/built-in.o
 .debug_abbrev  0x000000000002165b     0x4c67 lib/built-in.o
 .debug_abbrev  0x00000000000262c2     0x1f50 net/built-in.o
 .debug_abbrev  0x0000000000028212      0x19c arch/arm/lib/eabi_compat.o
 .debug_abbrev  0x00000000000283ae       0x14 /home/gmf/uboot/toolchain/x-tools/arm-s3c2440-linux-gnueabi/lib/gcc/arm-s3c2440-linux-gnueabi/5.2.0/libgcc.a(_udivsi3.o)
 .debug_abbrev  0x00000000000283c2       0x14 /home/gmf/uboot/toolchain/x-tools/arm-s3c2440-linux-gnueabi/lib/gcc/arm-s3c2440-linux-gnueabi/5.2.0/libgcc.a(_divsi3.o)
 .debug_abbrev  0x00000000000283d6       0x14 /home/gmf/uboot/toolchain/x-tools/arm-s3c2440-linux-gnueabi/lib/gcc/arm-s3c2440-linux-gnueabi/5.2.0/libgcc.a(_lshrdi3.o)
 .debug_abbrev  0x00000000000283ea       0x14 /home/gmf/uboot/toolchain/x-tools/arm-s3c2440-linux-gnueabi/lib/gcc/arm-s3c2440-linux-gnueabi/5.2.0/libgcc.a(_ashrdi3.o)
 .debug_abbrev  0x00000000000283fe       0x14 /home/gmf/uboot/toolchain/x-tools/arm-s3c2440-linux-gnueabi/lib/gcc/arm-s3c2440-linux-gnueabi/5.2.0/libgcc.a(_ashldi3.o)
 .debug_abbrev  0x0000000000028412       0x14 /home/gmf/uboot/toolchain/x-tools/arm-s3c2440-linux-gnueabi/lib/gcc/arm-s3c2440-linux-gnueabi/5.2.0/libgcc.a(_dvmd_lnx.o)

.debug_aranges  0x0000000000000000     0x5050
 .debug_aranges
                0x0000000000000000       0x20 arch/arm/cpu/arm920t/start.o
 .debug_aranges
                0x0000000000000020       0xd0 arch/arm/cpu/arm920t/built-in.o
 .debug_aranges
                0x00000000000000f0      0x238 arch/arm/lib/built-in.o
 .debug_aranges
                0x0000000000000328       0x60 board/samsung/smdk2410/built-in.o
 .debug_aranges
                0x0000000000000388      0x838 cmd/built-in.o
 .debug_aranges
                0x0000000000000bc0      0xd68 common/built-in.o
 .debug_aranges
                0x0000000000001928       0xa0 disk/built-in.o
 .debug_aranges
                0x00000000000019c8      0x108 drivers/built-in.o
 .debug_aranges
                0x0000000000001ad0      0x300 drivers/mtd/built-in.o
 .debug_aranges
                0x0000000000001dd0      0x398 drivers/mtd/nand/built-in.o
 .debug_aranges
                0x0000000000002168      0x528 drivers/mtd/ubi/built-in.o
 .debug_aranges
                0x0000000000002690       0x78 drivers/net/built-in.o
 .debug_aranges
                0x0000000000002708      0x190 drivers/serial/built-in.o
 .debug_aranges
                0x0000000000002898       0x80 drivers/usb/host/built-in.o
 .debug_aranges
                0x0000000000002918     0x1850 fs/built-in.o
 .debug_aranges
                0x0000000000004168      0x9f8 lib/built-in.o
 .debug_aranges
                0x0000000000004b60      0x3f8 net/built-in.o
 .debug_aranges
                0x0000000000004f58       0x38 arch/arm/lib/eabi_compat.o
 .debug_aranges
                0x0000000000004f90       0x20 /home/gmf/uboot/toolchain/x-tools/arm-s3c2440-linux-gnueabi/lib/gcc/arm-s3c2440-linux-gnueabi/5.2.0/libgcc.a(_udivsi3.o)
 .debug_aranges
                0x0000000000004fb0       0x20 /home/gmf/uboot/toolchain/x-tools/arm-s3c2440-linux-gnueabi/lib/gcc/arm-s3c2440-linux-gnueabi/5.2.0/libgcc.a(_divsi3.o)
 .debug_aranges
                0x0000000000004fd0       0x20 /home/gmf/uboot/toolchain/x-tools/arm-s3c2440-linux-gnueabi/lib/gcc/arm-s3c2440-linux-gnueabi/5.2.0/libgcc.a(_lshrdi3.o)
 .debug_aranges
                0x0000000000004ff0       0x20 /home/gmf/uboot/toolchain/x-tools/arm-s3c2440-linux-gnueabi/lib/gcc/arm-s3c2440-linux-gnueabi/5.2.0/libgcc.a(_ashrdi3.o)
 .debug_aranges
                0x0000000000005010       0x20 /home/gmf/uboot/toolchain/x-tools/arm-s3c2440-linux-gnueabi/lib/gcc/arm-s3c2440-linux-gnueabi/5.2.0/libgcc.a(_ashldi3.o)
 .debug_aranges
                0x0000000000005030       0x20 /home/gmf/uboot/toolchain/x-tools/arm-s3c2440-linux-gnueabi/lib/gcc/arm-s3c2440-linux-gnueabi/5.2.0/libgcc.a(_dvmd_lnx.o)

.debug_frame    0x0000000000000000     0xea48
 .debug_frame   0x0000000000000000      0x188 arch/arm/cpu/arm920t/built-in.o
 .debug_frame   0x0000000000000188      0x3b4 arch/arm/lib/built-in.o
 .debug_frame   0x000000000000053c       0x68 board/samsung/smdk2410/built-in.o
 .debug_frame   0x00000000000005a4     0x1628 cmd/built-in.o
 .debug_frame   0x0000000000001bcc     0x2618 common/built-in.o
 .debug_frame   0x00000000000041e4      0x220 disk/built-in.o
 .debug_frame   0x0000000000004404      0x228 drivers/built-in.o
 .debug_frame   0x000000000000462c      0xa94 drivers/mtd/built-in.o
 .debug_frame   0x00000000000050c0      0xc80 drivers/mtd/nand/built-in.o
 .debug_frame   0x0000000000005d40     0x113c drivers/mtd/ubi/built-in.o
 .debug_frame   0x0000000000006e7c      0x134 drivers/net/built-in.o
 .debug_frame   0x0000000000006fb0      0x3c0 drivers/serial/built-in.o
 .debug_frame   0x0000000000007370      0x184 drivers/usb/host/built-in.o
 .debug_frame   0x00000000000074f4     0x4f70 fs/built-in.o
 .debug_frame   0x000000000000c464     0x1968 lib/built-in.o
 .debug_frame   0x000000000000ddcc      0xbd4 net/built-in.o
 .debug_frame   0x000000000000e9a0       0x68 arch/arm/lib/eabi_compat.o
 .debug_frame   0x000000000000ea08       0x20 /home/gmf/uboot/toolchain/x-tools/arm-s3c2440-linux-gnueabi/lib/gcc/arm-s3c2440-linux-gnueabi/5.2.0/libgcc.a(_udivsi3.o)
 .debug_frame   0x000000000000ea28       0x20 /home/gmf/uboot/toolchain/x-tools/arm-s3c2440-linux-gnueabi/lib/gcc/arm-s3c2440-linux-gnueabi/5.2.0/libgcc.a(_divsi3.o)

.debug_str      0x0000000000000000    0x18e28
 .debug_str     0x0000000000000000      0x85f arch/arm/cpu/arm920t/built-in.o
                                       0x14cf (size before relaxing)
 .debug_str     0x000000000000085f     0x129d arch/arm/lib/built-in.o
                                       0x31d3 (size before relaxing)
 .debug_str     0x0000000000001afc      0x176 board/samsung/smdk2410/built-in.o
                                        0x8d4 (size before relaxing)
 .debug_str     0x0000000000001c72     0x43e5 cmd/built-in.o
                                      0x12320 (size before relaxing)
 .debug_str     0x0000000000006057     0x328d common/built-in.o
                                      0x16949 (size before relaxing)
 .debug_str     0x00000000000092e4      0x2d2 disk/built-in.o
                                       0x1050 (size before relaxing)
 .debug_str     0x00000000000095b6      0x5ae drivers/built-in.o
                                       0x20e8 (size before relaxing)
 .debug_str     0x0000000000009b64      0xb7c drivers/mtd/built-in.o
                                       0x35e7 (size before relaxing)
 .debug_str     0x000000000000a6e0     0x1168 drivers/mtd/nand/built-in.o
                                       0x7bed (size before relaxing)
 .debug_str     0x000000000000b848     0x14eb drivers/mtd/ubi/built-in.o
                                       0xd664 (size before relaxing)
 .debug_str     0x000000000000cd33      0x14a drivers/net/built-in.o
                                        0x5b1 (size before relaxing)
 .debug_str     0x000000000000ce7d      0x410 drivers/serial/built-in.o
                                       0x103f (size before relaxing)
 .debug_str     0x000000000000d28d      0x4b7 drivers/usb/host/built-in.o
                                       0x106c (size before relaxing)
 .debug_str     0x000000000000d744     0x8a34 fs/built-in.o
                                      0x442f8 (size before relaxing)
 .debug_str     0x0000000000016178     0x1968 lib/built-in.o
                                       0xbac4 (size before relaxing)
 .debug_str     0x0000000000017ae0     0x12eb net/built-in.o
                                       0x733f (size before relaxing)
 .debug_str     0x0000000000018dcb       0x5d arch/arm/lib/eabi_compat.o
                                        0x455 (size before relaxing)

.debug_loc      0x0000000000000000    0x8a4e5
 .debug_loc     0x0000000000000000      0x3e6 arch/arm/cpu/arm920t/built-in.o
 .debug_loc     0x00000000000003e6      0x8e2 arch/arm/lib/built-in.o
 .debug_loc     0x0000000000000cc8       0x6e board/samsung/smdk2410/built-in.o
 .debug_loc     0x0000000000000d36     0xd197 cmd/built-in.o
 .debug_loc     0x000000000000decd     0xfdff common/built-in.o
 .debug_loc     0x000000000001dccc     0x1162 disk/built-in.o
 .debug_loc     0x000000000001ee2e     0x131b drivers/built-in.o
 .debug_loc     0x0000000000020149     0x5520 drivers/mtd/built-in.o
 .debug_loc     0x0000000000025669     0xa13b drivers/mtd/nand/built-in.o
 .debug_loc     0x000000000002f7a4     0xdd5c drivers/mtd/ubi/built-in.o
 .debug_loc     0x000000000003d500      0xa9d drivers/net/built-in.o
 .debug_loc     0x000000000003df9d      0x882 drivers/serial/built-in.o
 .debug_loc     0x000000000003e81f     0x1fb0 drivers/usb/host/built-in.o
 .debug_loc     0x00000000000407cf    0x31df2 fs/built-in.o
 .debug_loc     0x00000000000725c1    0x13283 lib/built-in.o
 .debug_loc     0x0000000000085844     0x4b99 net/built-in.o
 .debug_loc     0x000000000008a3dd      0x108 arch/arm/lib/eabi_compat.o

.debug_ranges   0x0000000000000000     0xbe30
 .debug_ranges  0x0000000000000000       0xf8 arch/arm/cpu/arm920t/built-in.o
 .debug_ranges  0x00000000000000f8      0x1d8 arch/arm/lib/built-in.o
 .debug_ranges  0x00000000000002d0       0x30 board/samsung/smdk2410/built-in.o
 .debug_ranges  0x0000000000000300      0xf00 cmd/built-in.o
 .debug_ranges  0x0000000000001200     0x14d0 common/built-in.o
 .debug_ranges  0x00000000000026d0      0x160 disk/built-in.o
 .debug_ranges  0x0000000000002830      0x240 drivers/built-in.o
 .debug_ranges  0x0000000000002a70      0x770 drivers/mtd/built-in.o
 .debug_ranges  0x00000000000031e0      0x8a0 drivers/mtd/nand/built-in.o
 .debug_ranges  0x0000000000003a80     0x13e8 drivers/mtd/ubi/built-in.o
 .debug_ranges  0x0000000000004e68      0x268 drivers/net/built-in.o
 .debug_ranges  0x00000000000050d0      0x1e8 drivers/serial/built-in.o
 .debug_ranges  0x00000000000052b8      0x2a8 drivers/usb/host/built-in.o
 .debug_ranges  0x0000000000005560     0x4a78 fs/built-in.o
 .debug_ranges  0x0000000000009fd8     0x1690 lib/built-in.o
 .debug_ranges  0x000000000000b668      0x7a0 net/built-in.o
 .debug_ranges  0x000000000000be08       0x28 arch/arm/lib/eabi_compat.o
